GAS LISTING /tmp/cctdEicP.s 			page 1


   1              		.file	"main.cpp"
   2              		.option pic
   3              		.option norelax
   4              		.text
   5              	.Ltext0:
   6              		.align	2
   7              		.globl	_Z15userMainWrapperPv
   9              	_Z15userMainWrapperPv:
  10              	.LFB38:
  11              		.file 1 "src/main.cpp"
   1:src/main.cpp  **** 
   2:src/main.cpp  **** #include "../h/riscv.hpp"
   3:src/main.cpp  **** #include "../h/syscall_c.h"
   4:src/main.cpp  **** #include "../test/printing.hpp"
   5:src/main.cpp  **** 
   6:src/main.cpp  **** 
   7:src/main.cpp  **** extern void userMain();
   8:src/main.cpp  **** void userMainWrapper(void*){
  12              		.loc 1 8 28
  13              		.cfi_startproc
  14 0000 130101FF 		addi	sp,sp,-16
  15              		.cfi_def_cfa_offset 16
  16 0004 23341100 		sd	ra,8(sp)
  17 0008 23308100 		sd	s0,0(sp)
  18              		.cfi_offset 1, -8
  19              		.cfi_offset 8, -16
  20 000c 13040101 		addi	s0,sp,16
  21              		.cfi_def_cfa 8, 0
   9:src/main.cpp  ****     userMain();
  22              		.loc 1 9 5
  23              		.loc 1 9 13 is_stmt 0
  24 0010 97000000 		call	_Z8userMainv@plt
  24      E7800000 
  25              	.LVL0:
  10:src/main.cpp  **** }
  26              		.loc 1 10 1
  27 0018 83308100 		ld	ra,8(sp)
  28              		.cfi_restore 1
  29 001c 03340100 		ld	s0,0(sp)
  30              		.cfi_restore 8
  31              		.cfi_def_cfa 2, 16
  32 0020 13010101 		addi	sp,sp,16
  33              		.cfi_def_cfa_offset 0
  34 0024 67800000 		jr	ra
  35              		.cfi_endproc
  36              	.LFE38:
  38              		.section	.rodata.str1.8,"aMS",@progbits,1
  39              		.align	3
  40              	.LC0:
  41 0000 53746172 		.string	"Started.\n"
  41      7465642E 
  41      0A00
  42 000a 00000000 		.align	3
  42      0000
  43              	.LC1:
  44 0010 46696E69 		.string	"Finished.\n"
  44      73686564 
GAS LISTING /tmp/cctdEicP.s 			page 2


  44      2E0A00
  45              		.text
  46              		.align	2
  47              		.globl	main
  49              	main:
  50              	.LFB39:
  11:src/main.cpp  **** 
  12:src/main.cpp  **** 
  13:src/main.cpp  **** int main(){
  51              		.loc 1 13 11 is_stmt 1
  52              		.cfi_startproc
  53 0028 130101FD 		addi	sp,sp,-48
  54              		.cfi_def_cfa_offset 48
  55 002c 23341102 		sd	ra,40(sp)
  56 0030 23308102 		sd	s0,32(sp)
  57 0034 233C9100 		sd	s1,24(sp)
  58 0038 23382101 		sd	s2,16(sp)
  59              		.cfi_offset 1, -8
  60              		.cfi_offset 8, -16
  61              		.cfi_offset 9, -24
  62              		.cfi_offset 18, -32
  63 003c 13040103 		addi	s0,sp,48
  64              		.cfi_def_cfa 8, 0
  14:src/main.cpp  **** 
  15:src/main.cpp  ****     TCB* mainThread=TCB::createThread(nullptr, nullptr, nullptr);
  65              		.loc 1 15 5
  66              		.loc 1 15 38 is_stmt 0
  67 0040 13060000 		li	a2,0
  68 0044 93050000 		li	a1,0
  69 0048 13050000 		li	a0,0
  70 004c 97000000 		call	_ZN3TCB12createThreadEPFvPvES0_S0_@plt
  70      E7800000 
  71              	.LVL1:
  72 0054 13090500 		mv	s2,a0
  73              	.LVL2:
  16:src/main.cpp  ****     TCB::running=mainThread;
  74              		.loc 1 16 5 is_stmt 1
  75              		.loc 1 16 17 is_stmt 0
  76 0058 97070000 		la	a5,_ZN3TCB7runningE
  76      83B70700 
  77 0060 23B0A700 		sd	a0,0(a5)
  17:src/main.cpp  **** 
  18:src/main.cpp  **** 
  19:src/main.cpp  ****     Riscv::w_stvec((uint64) &Riscv::supervisorTrap);
  78              		.loc 1 19 5 is_stmt 1
  79              		.loc 1 19 19 is_stmt 0
  80 0064 97070000 		la	a5,_ZN5Riscv14supervisorTrapEv
  80      83B70700 
  81              	.LVL3:
  82              	.LBB14:
  83              	.LBB15:
  84              		.file 2 "src/../h/riscv.hpp"
   1:src/../h/riscv.hpp **** 
   2:src/../h/riscv.hpp **** #ifndef OS_NOVI_PROJEKAT_17_7_2024_RISCV_HPP
   3:src/../h/riscv.hpp **** #define OS_NOVI_PROJEKAT_17_7_2024_RISCV_HPP
   4:src/../h/riscv.hpp **** 
   5:src/../h/riscv.hpp **** #include "../lib/hw.h"
GAS LISTING /tmp/cctdEicP.s 			page 3


   6:src/../h/riscv.hpp **** 
   7:src/../h/riscv.hpp **** class Riscv
   8:src/../h/riscv.hpp **** {
   9:src/../h/riscv.hpp **** public:
  10:src/../h/riscv.hpp **** 
  11:src/../h/riscv.hpp **** 
  12:src/../h/riscv.hpp **** 
  13:src/../h/riscv.hpp ****     // pop sstatus.spp and sstatus.spie bits (has to be a non inline function)
  14:src/../h/riscv.hpp ****     static void popSppSpie();
  15:src/../h/riscv.hpp **** 
  16:src/../h/riscv.hpp ****     // read register scause
  17:src/../h/riscv.hpp ****     static uint64 r_scause();
  18:src/../h/riscv.hpp **** 
  19:src/../h/riscv.hpp ****     // write register scause
  20:src/../h/riscv.hpp ****     static void w_scause(uint64 scause);
  21:src/../h/riscv.hpp **** 
  22:src/../h/riscv.hpp ****     // read register sepc
  23:src/../h/riscv.hpp ****     static uint64 r_sepc();
  24:src/../h/riscv.hpp **** 
  25:src/../h/riscv.hpp ****     // write register sepc
  26:src/../h/riscv.hpp ****     static void w_sepc(uint64 sepc);
  27:src/../h/riscv.hpp **** 
  28:src/../h/riscv.hpp ****     // read register stvec
  29:src/../h/riscv.hpp ****     static uint64 r_stvec();
  30:src/../h/riscv.hpp **** 
  31:src/../h/riscv.hpp ****     // write register stvec
  32:src/../h/riscv.hpp ****     static void w_stvec(uint64 stvec);
  33:src/../h/riscv.hpp **** 
  34:src/../h/riscv.hpp ****     // read register stval
  35:src/../h/riscv.hpp ****     static uint64 r_stval();
  36:src/../h/riscv.hpp **** 
  37:src/../h/riscv.hpp ****     // write register stval
  38:src/../h/riscv.hpp ****     static void w_stval(uint64 stval);
  39:src/../h/riscv.hpp **** 
  40:src/../h/riscv.hpp ****     enum BitMaskSip
  41:src/../h/riscv.hpp ****     {
  42:src/../h/riscv.hpp ****         SIP_SSIP = (1 << 1),
  43:src/../h/riscv.hpp ****         SIP_STIP = (1 << 5),
  44:src/../h/riscv.hpp ****         SIP_SEIP = (1 << 9),
  45:src/../h/riscv.hpp ****     };
  46:src/../h/riscv.hpp **** 
  47:src/../h/riscv.hpp ****     // mask set register sip
  48:src/../h/riscv.hpp ****     static void ms_sip(uint64 mask);
  49:src/../h/riscv.hpp **** 
  50:src/../h/riscv.hpp ****     // mask clear register sip
  51:src/../h/riscv.hpp ****     static void mc_sip(uint64 mask);
  52:src/../h/riscv.hpp **** 
  53:src/../h/riscv.hpp ****     // read register sip
  54:src/../h/riscv.hpp ****     static uint64 r_sip();
  55:src/../h/riscv.hpp **** 
  56:src/../h/riscv.hpp ****     // write register sip
  57:src/../h/riscv.hpp ****     static void w_sip(uint64 sip);
  58:src/../h/riscv.hpp **** 
  59:src/../h/riscv.hpp ****     enum BitMaskSstatus
  60:src/../h/riscv.hpp ****     {
  61:src/../h/riscv.hpp ****         SSTATUS_SIE = (1 << 1),
  62:src/../h/riscv.hpp ****         SSTATUS_SPIE = (1 << 5),
GAS LISTING /tmp/cctdEicP.s 			page 4


  63:src/../h/riscv.hpp ****         SSTATUS_SPP = (1 << 8),
  64:src/../h/riscv.hpp ****     };
  65:src/../h/riscv.hpp **** 
  66:src/../h/riscv.hpp ****     // mask set register sstatus
  67:src/../h/riscv.hpp ****     static void ms_sstatus(uint64 mask);
  68:src/../h/riscv.hpp **** 
  69:src/../h/riscv.hpp ****     // mask clear register sstatus
  70:src/../h/riscv.hpp ****     static void mc_sstatus(uint64 mask);
  71:src/../h/riscv.hpp **** 
  72:src/../h/riscv.hpp ****     // read register sstatus
  73:src/../h/riscv.hpp ****     static uint64 r_sstatus();
  74:src/../h/riscv.hpp **** 
  75:src/../h/riscv.hpp ****     // write register sstatus
  76:src/../h/riscv.hpp ****     static void w_sstatus(uint64 sstatus);
  77:src/../h/riscv.hpp **** 
  78:src/../h/riscv.hpp ****     // supervisor trap
  79:src/../h/riscv.hpp ****     static void supervisorTrap();
  80:src/../h/riscv.hpp **** 
  81:src/../h/riscv.hpp **** private:
  82:src/../h/riscv.hpp **** 
  83:src/../h/riscv.hpp ****     // supervisor trap handler
  84:src/../h/riscv.hpp ****     static void handleSupervisorTrap();
  85:src/../h/riscv.hpp **** 
  86:src/../h/riscv.hpp **** };
  87:src/../h/riscv.hpp **** 
  88:src/../h/riscv.hpp **** inline uint64 Riscv::r_scause()
  89:src/../h/riscv.hpp **** {
  90:src/../h/riscv.hpp ****     uint64 volatile scause;
  91:src/../h/riscv.hpp ****     __asm__ volatile ("csrr %[scause], scause" : [scause] "=r"(scause));
  92:src/../h/riscv.hpp ****     return scause;
  93:src/../h/riscv.hpp **** }
  94:src/../h/riscv.hpp **** 
  95:src/../h/riscv.hpp **** inline void Riscv::w_scause(uint64 scause)
  96:src/../h/riscv.hpp **** {
  97:src/../h/riscv.hpp ****     __asm__ volatile ("csrw scause, %[scause]" : : [scause] "r"(scause));
  98:src/../h/riscv.hpp **** }
  99:src/../h/riscv.hpp **** 
 100:src/../h/riscv.hpp **** inline uint64 Riscv::r_sepc()
 101:src/../h/riscv.hpp **** {
 102:src/../h/riscv.hpp ****     uint64 volatile sepc;
 103:src/../h/riscv.hpp ****     __asm__ volatile ("csrr %[sepc], sepc" : [sepc] "=r"(sepc));
 104:src/../h/riscv.hpp ****     return sepc;
 105:src/../h/riscv.hpp **** }
 106:src/../h/riscv.hpp **** 
 107:src/../h/riscv.hpp **** inline void Riscv::w_sepc(uint64 sepc)
 108:src/../h/riscv.hpp **** {
 109:src/../h/riscv.hpp ****     __asm__ volatile ("csrw sepc, %[sepc]" : : [sepc] "r"(sepc));
 110:src/../h/riscv.hpp **** }
 111:src/../h/riscv.hpp **** 
 112:src/../h/riscv.hpp **** inline uint64 Riscv::r_stvec()
 113:src/../h/riscv.hpp **** {
 114:src/../h/riscv.hpp ****     uint64 volatile stvec;
 115:src/../h/riscv.hpp ****     __asm__ volatile ("csrr %[stvec], stvec" : [stvec] "=r"(stvec));
 116:src/../h/riscv.hpp ****     return stvec;
 117:src/../h/riscv.hpp **** }
 118:src/../h/riscv.hpp **** 
 119:src/../h/riscv.hpp **** inline void Riscv::w_stvec(uint64 stvec)
GAS LISTING /tmp/cctdEicP.s 			page 5


 120:src/../h/riscv.hpp **** {
 121:src/../h/riscv.hpp ****     __asm__ volatile ("csrw stvec, %[stvec]" : : [stvec] "r"(stvec));
  85              		.loc 2 121 5 is_stmt 1
  86              		.loc 2 121 69 is_stmt 0
  87              	#APP
  88              	# 121 "src/../h/riscv.hpp" 1
 122              	}
  89              		csrw stvec, a5
  90              	# 0 "" 2
  91              	.LVL4:
  92              	#NO_APP
  93              	.LBE15:
  94              	.LBE14:
  20:src/main.cpp  ****     Riscv::ms_sstatus(Riscv::SSTATUS_SIE);
  95              		.loc 1 20 5 is_stmt 1
  96              	.LBB16:
  97              	.LBB17:
 123:src/../h/riscv.hpp **** 
 124:src/../h/riscv.hpp **** inline uint64 Riscv::r_stval()
 125:src/../h/riscv.hpp **** {
 126:src/../h/riscv.hpp ****     uint64 volatile stval;
 127:src/../h/riscv.hpp ****     __asm__ volatile ("csrr %[stval], stval" : [stval] "=r"(stval));
 128:src/../h/riscv.hpp ****     return stval;
 129:src/../h/riscv.hpp **** }
 130:src/../h/riscv.hpp **** 
 131:src/../h/riscv.hpp **** inline void Riscv::w_stval(uint64 stval)
 132:src/../h/riscv.hpp **** {
 133:src/../h/riscv.hpp ****     __asm__ volatile ("csrw stval, %[stval]" : : [stval] "r"(stval));
 134:src/../h/riscv.hpp **** }
 135:src/../h/riscv.hpp **** 
 136:src/../h/riscv.hpp **** inline void Riscv::ms_sip(uint64 mask)
 137:src/../h/riscv.hpp **** {
 138:src/../h/riscv.hpp ****     __asm__ volatile ("csrs sip, %[mask]" : : [mask] "r"(mask));
 139:src/../h/riscv.hpp **** }
 140:src/../h/riscv.hpp **** 
 141:src/../h/riscv.hpp **** inline void Riscv::mc_sip(uint64 mask)
 142:src/../h/riscv.hpp **** {
 143:src/../h/riscv.hpp ****     __asm__ volatile ("csrc sip, %[mask]" : : [mask] "r"(mask));
 144:src/../h/riscv.hpp **** }
 145:src/../h/riscv.hpp **** 
 146:src/../h/riscv.hpp **** inline uint64 Riscv::r_sip()
 147:src/../h/riscv.hpp **** {
 148:src/../h/riscv.hpp ****     uint64 volatile sip;
 149:src/../h/riscv.hpp ****     __asm__ volatile ("csrr %[sip], sip" : [sip] "=r"(sip));
 150:src/../h/riscv.hpp ****     return sip;
 151:src/../h/riscv.hpp **** }
 152:src/../h/riscv.hpp **** 
 153:src/../h/riscv.hpp **** inline void Riscv::w_sip(uint64 sip)
 154:src/../h/riscv.hpp **** {
 155:src/../h/riscv.hpp ****     __asm__ volatile ("csrw sip, %[sip]" : : [sip] "r"(sip));
 156:src/../h/riscv.hpp **** }
 157:src/../h/riscv.hpp **** 
 158:src/../h/riscv.hpp **** inline void Riscv::ms_sstatus(uint64 mask)
 159:src/../h/riscv.hpp **** {
 160:src/../h/riscv.hpp ****     __asm__ volatile ("csrs sstatus, %[mask]" : : [mask] "r"(mask));
  98              		.loc 2 160 5
  99              		.loc 2 160 68 is_stmt 0
GAS LISTING /tmp/cctdEicP.s 			page 6


 100 0070 93072000 		li	a5,2
 101              	#APP
 102              	# 160 "src/../h/riscv.hpp" 1
 161              	}
 103              		csrs sstatus, a5
 104              	# 0 "" 2
 105              	.LVL5:
 106              	#NO_APP
 107              	.LBE17:
 108              	.LBE16:
  21:src/main.cpp  ****     printString("Started.\n");
 109              		.loc 1 21 5 is_stmt 1
 110              		.loc 1 21 16 is_stmt 0
 111 0078 17050000 		lla	a0,.LC0
 111      13050500 
 112              	.LVL6:
 113 0080 97000000 		call	_Z11printStringPKc@plt
 113      E7800000 
 114              	.LVL7:
  22:src/main.cpp  **** 
  23:src/main.cpp  ****     TCB* userThread;
 115              		.loc 1 23 5 is_stmt 1
  24:src/main.cpp  ****     thread_create(&userThread, userMainWrapper, nullptr);
 116              		.loc 1 24 5
 117              		.loc 1 24 18 is_stmt 0
 118 0088 13060000 		li	a2,0
 119 008c 97050000 		lla	a1,_Z15userMainWrapperPv
 119      93850500 
 120 0094 130584FD 		addi	a0,s0,-40
 121 0098 97000000 		call	_Z13thread_createPP3TCBPFvPvES2_@plt
 121      E7800000 
 122              	.LVL8:
 123              	.L5:
  25:src/main.cpp  **** 
  26:src/main.cpp  ****     while(!userThread->isFinished()){
 124              		.loc 1 26 5 is_stmt 1
 125              		.loc 1 26 11
 126              		.loc 1 26 34 is_stmt 0
 127 00a0 833484FD 		ld	s1,-40(s0)
 128              	.LVL9:
 129              	.LBB18:
 130              	.LBB19:
 131              		.file 3 "src/../h/tcb.hpp"
   1:src/../h/tcb.hpp **** 
   2:src/../h/tcb.hpp **** #ifndef OS_NOVI_PROJEKAT_17_7_2024_TCB_HPP
   3:src/../h/tcb.hpp **** #define OS_NOVI_PROJEKAT_17_7_2024_TCB_HPP
   4:src/../h/tcb.hpp **** 
   5:src/../h/tcb.hpp **** #include "../lib/hw.h"
   6:src/../h/tcb.hpp **** #include "scheduler.hpp"
   7:src/../h/tcb.hpp **** 
   8:src/../h/tcb.hpp **** 
   9:src/../h/tcb.hpp **** class TCB{
  10:src/../h/tcb.hpp **** public:
  11:src/../h/tcb.hpp **** 
  12:src/../h/tcb.hpp ****     ~TCB(){ delete[] stack;}
  13:src/../h/tcb.hpp **** 
  14:src/../h/tcb.hpp ****     bool isFinished() const{ return finished;}
GAS LISTING /tmp/cctdEicP.s 			page 7


 132              		.loc 3 14 30 is_stmt 1
 133              		.loc 3 14 37 is_stmt 0
 134 00a4 83C78402 		lbu	a5,40(s1)
 135              	.LVL10:
 136              	.LBE19:
 137              	.LBE18:
 138              		.loc 1 26 11
 139 00a8 63980700 		bnez	a5,.L4
  27:src/main.cpp  ****         thread_dispatch();
 140              		.loc 1 27 9 is_stmt 1
 141              		.loc 1 27 24 is_stmt 0
 142 00ac 97000000 		call	_Z15thread_dispatchv@plt
 142      E7800000 
 143              	.LVL11:
 144 00b4 6FF0DFFE 		j	.L5
 145              	.L4:
  28:src/main.cpp  ****     }
  29:src/main.cpp  **** 
  30:src/main.cpp  **** 
  31:src/main.cpp  ****     delete userThread;
 146              		.loc 1 31 5 is_stmt 1
 147              		.loc 1 31 22 is_stmt 0
 148 00b8 63800402 		beqz	s1,.L6
 149              	.LVL12:
 150              	.LBB20:
 151              	.LBB21:
  12:src/../h/tcb.hpp **** 
 152              		.loc 3 12 13 is_stmt 1
  12:src/../h/tcb.hpp **** 
 153              		.loc 3 12 22 is_stmt 0
 154 00bc 03B50401 		ld	a0,16(s1)
  12:src/../h/tcb.hpp **** 
 155              		.loc 3 12 27
 156 00c0 63060500 		beqz	a0,.L7
  12:src/../h/tcb.hpp **** 
 157              		.loc 3 12 22
 158 00c4 97000000 		call	_ZdaPv@plt
 158      E7800000 
 159              	.LVL13:
 160              	.L7:
 161              	.LBE21:
 162              	.LBE20:
 163              		.loc 1 31 12
 164 00cc 13850400 		mv	a0,s1
 165 00d0 97000000 		call	_ZdlPv@plt
 165      E7800000 
 166              	.LVL14:
 167              	.L6:
  32:src/main.cpp  ****     delete mainThread;
 168              		.loc 1 32 5 is_stmt 1
 169              		.loc 1 32 22 is_stmt 0
 170 00d8 63000902 		beqz	s2,.L8
 171              	.LVL15:
 172              	.LBB22:
 173              	.LBB23:
  12:src/../h/tcb.hpp **** 
 174              		.loc 3 12 13 is_stmt 1
GAS LISTING /tmp/cctdEicP.s 			page 8


  12:src/../h/tcb.hpp **** 
 175              		.loc 3 12 22 is_stmt 0
 176 00dc 03350901 		ld	a0,16(s2)
  12:src/../h/tcb.hpp **** 
 177              		.loc 3 12 27
 178 00e0 63060500 		beqz	a0,.L9
  12:src/../h/tcb.hpp **** 
 179              		.loc 3 12 22
 180 00e4 97000000 		call	_ZdaPv@plt
 180      E7800000 
 181              	.LVL16:
 182              	.L9:
 183              	.LBE23:
 184              	.LBE22:
 185              		.loc 1 32 12
 186 00ec 13050900 		mv	a0,s2
 187 00f0 97000000 		call	_ZdlPv@plt
 187      E7800000 
 188              	.LVL17:
 189              	.L8:
  33:src/main.cpp  **** 
  34:src/main.cpp  ****     printString("Finished.\n");
 190              		.loc 1 34 5 is_stmt 1
 191              		.loc 1 34 16 is_stmt 0
 192 00f8 17050000 		lla	a0,.LC1
 192      13050500 
 193 0100 97000000 		call	_Z11printStringPKc@plt
 193      E7800000 
 194              	.LVL18:
  35:src/main.cpp  **** 
  36:src/main.cpp  **** 
  37:src/main.cpp  ****     return 0;
 195              		.loc 1 37 5 is_stmt 1
  38:src/main.cpp  **** 
  39:src/main.cpp  **** }...
 196              		.loc 1 39 1 is_stmt 0
 197 0108 13050000 		li	a0,0
 198 010c 83308102 		ld	ra,40(sp)
 199              		.cfi_restore 1
 200 0110 03340102 		ld	s0,32(sp)
 201              		.cfi_restore 8
 202              		.cfi_def_cfa 2, 48
 203 0114 83348101 		ld	s1,24(sp)
 204              		.cfi_restore 9
 205 0118 03390101 		ld	s2,16(sp)
 206              		.cfi_restore 18
 207              	.LVL19:
 208 011c 13010103 		addi	sp,sp,48
 209              		.cfi_def_cfa_offset 0
 210 0120 67800000 		jr	ra
 211              		.cfi_endproc
 212              	.LFE39:
 214              	.Letext0:
 215              		.file 4 "src/../h/../lib/hw.h"
 216              		.file 5 "src/../test/printing.hpp"
 217              		.file 6 "src/../h/syscall_c.h"
GAS LISTING /tmp/cctdEicP.s 			page 9

