GAS LISTING /tmp/cciY2llU.s 			page 1


   1              		.file	"sem.cpp"
   2              		.option pic
   3              		.option norelax
   4              		.text
   5              	.Ltext0:
   6              		.align	2
   7              		.globl	_ZN3Sem10create_semEi
   9              	_ZN3Sem10create_semEi:
  10              	.LFB38:
  11              		.file 1 "src/sem.cpp"
   1:src/sem.cpp   **** 
   2:src/sem.cpp   **** #include "../h/sem.hpp"
   3:src/sem.cpp   **** #include "../h/riscv.hpp"
   4:src/sem.cpp   **** 
   5:src/sem.cpp   **** Sem *Sem::create_sem(int val) {
  12              		.loc 1 5 31
  13              		.cfi_startproc
  14              	.LVL0:
  15 0000 130101FE 		addi	sp,sp,-32
  16              		.cfi_def_cfa_offset 32
  17 0004 233C1100 		sd	ra,24(sp)
  18 0008 23388100 		sd	s0,16(sp)
  19 000c 23349100 		sd	s1,8(sp)
  20              		.cfi_offset 1, -8
  21              		.cfi_offset 8, -16
  22              		.cfi_offset 9, -24
  23 0010 13040102 		addi	s0,sp,32
  24              		.cfi_def_cfa 8, 0
  25 0014 93040500 		mv	s1,a0
   6:src/sem.cpp   ****     return new Sem(val);
  26              		.loc 1 6 5
  27              		.loc 1 6 23 is_stmt 0
  28 0018 13050002 		li	a0,32
  29              	.LVL1:
  30 001c 97000000 		call	_Znwm@plt
  30      E7800000 
  31              	.LVL2:
  32              	.LBB34:
  33              	.LBB35:
  34              		.file 2 "src/../h/sem.hpp"
   1:src/../h/sem.hpp **** 
   2:src/../h/sem.hpp **** #ifndef OS_NOVI_PROJEKAT_17_7_2024_SEM_HPP
   3:src/../h/sem.hpp **** #define OS_NOVI_PROJEKAT_17_7_2024_SEM_HPP
   4:src/../h/sem.hpp **** 
   5:src/../h/sem.hpp **** #include "../lib/hw.h"
   6:src/../h/sem.hpp **** #include "list.hpp"
   7:src/../h/sem.hpp **** #include "scheduler.hpp"
   8:src/../h/sem.hpp **** #include "tcb.hpp"
   9:src/../h/sem.hpp **** 
  10:src/../h/sem.hpp **** class Sem{
  11:src/../h/sem.hpp **** public:
  12:src/../h/sem.hpp ****     Sem(uint16 init=1): val(init), terminated(false){}
  35              		.loc 2 12 52
  36 0024 93940403 		slli	s1,s1,48
  37              	.LVL3:
  38 0028 93D40403 		srli	s1,s1,48
  39 002c 23209500 		sw	s1,0(a0)
GAS LISTING /tmp/cciY2llU.s 			page 2


  40              	.LVL4:
  41              	.LBB36:
  42              	.LBB37:
  43              		.file 3 "src/../h/list.hpp"
   1:src/../h/list.hpp **** 
   2:src/../h/list.hpp **** #ifndef OS_NOVI_PROJEKAT_17_7_2024_LIST_HPP
   3:src/../h/list.hpp **** #define OS_NOVI_PROJEKAT_17_7_2024_LIST_HPP
   4:src/../h/list.hpp **** 
   5:src/../h/list.hpp **** template<typename T>
   6:src/../h/list.hpp **** class List
   7:src/../h/list.hpp **** {
   8:src/../h/list.hpp **** private:
   9:src/../h/list.hpp ****     struct Elem
  10:src/../h/list.hpp ****     {
  11:src/../h/list.hpp ****         T *data;
  12:src/../h/list.hpp ****         Elem *next;
  13:src/../h/list.hpp **** 
  14:src/../h/list.hpp ****         Elem(T *data, Elem *next) : data(data), next(next) {}
  15:src/../h/list.hpp ****     };
  16:src/../h/list.hpp **** 
  17:src/../h/list.hpp ****     Elem *head, *tail;
  18:src/../h/list.hpp **** 
  19:src/../h/list.hpp **** public:
  20:src/../h/list.hpp ****     List() : head(0), tail(0) {}
  44              		.loc 3 20 29
  45 0030 23340500 		sd	zero,8(a0)
  46 0034 23380500 		sd	zero,16(a0)
  47              	.LVL5:
  48              	.LBE37:
  49              	.LBE36:
  50              		.loc 2 12 52
  51 0038 230C0500 		sb	zero,24(a0)
  52              	.LVL6:
  53              	.LBE35:
  54              	.LBE34:
   7:src/sem.cpp   **** }
  55              		.loc 1 7 1
  56 003c 83308101 		ld	ra,24(sp)
  57              		.cfi_restore 1
  58 0040 03340101 		ld	s0,16(sp)
  59              		.cfi_restore 8
  60              		.cfi_def_cfa 2, 32
  61 0044 83348100 		ld	s1,8(sp)
  62              		.cfi_restore 9
  63 0048 13010102 		addi	sp,sp,32
  64              		.cfi_def_cfa_offset 0
  65 004c 67800000 		jr	ra
  66              		.cfi_endproc
  67              	.LFE38:
  69              		.align	2
  70              		.globl	_ZN3Sem5blockEv
  72              	_ZN3Sem5blockEv:
  73              	.LFB39:
   8:src/sem.cpp   **** 
   9:src/sem.cpp   **** void Sem::block(){
  74              		.loc 1 9 18 is_stmt 1
  75              		.cfi_startproc
GAS LISTING /tmp/cciY2llU.s 			page 3


  76              	.LVL7:
  77 0050 130101FE 		addi	sp,sp,-32
  78              		.cfi_def_cfa_offset 32
  79 0054 233C1100 		sd	ra,24(sp)
  80 0058 23388100 		sd	s0,16(sp)
  81 005c 23349100 		sd	s1,8(sp)
  82 0060 23302101 		sd	s2,0(sp)
  83              		.cfi_offset 1, -8
  84              		.cfi_offset 8, -16
  85              		.cfi_offset 9, -24
  86              		.cfi_offset 18, -32
  87 0064 13040102 		addi	s0,sp,32
  88              		.cfi_def_cfa 8, 0
  89 0068 93040500 		mv	s1,a0
  10:src/sem.cpp   ****     blocked.addLast(TCB::running);
  90              		.loc 1 10 5
  91              		.loc 1 10 20 is_stmt 0
  92 006c 97070000 		la	a5,_ZN3TCB7runningE
  92      83B70700 
  93 0074 03B90700 		ld	s2,0(a5)
  94              	.LVL8:
  95              	.LBB38:
  96              	.LBB39:
  21:src/../h/list.hpp **** 
  22:src/../h/list.hpp ****     List(const List<T> &) = delete;
  23:src/../h/list.hpp **** 
  24:src/../h/list.hpp ****     List<T> &operator=(const List<T> &) = delete;
  25:src/../h/list.hpp **** 
  26:src/../h/list.hpp ****     void addFirst(T *data)
  27:src/../h/list.hpp ****     {
  28:src/../h/list.hpp ****         Elem *elem = new Elem(data, head);
  29:src/../h/list.hpp ****         head = elem;
  30:src/../h/list.hpp ****         if (!tail) { tail = head; }
  31:src/../h/list.hpp ****     }
  32:src/../h/list.hpp **** 
  33:src/../h/list.hpp ****     void addLast(T *data)
  34:src/../h/list.hpp ****     {
  35:src/../h/list.hpp ****         Elem *elem = new Elem(data, 0);
  97              		.loc 3 35 22
  98 0078 13050001 		li	a0,16
  99              	.LVL9:
 100 007c 97000000 		call	_Znwm@plt
 100      E7800000 
 101              	.LVL10:
 102              	.LBB40:
 103              	.LBB41:
  14:src/../h/list.hpp ****     };
 104              		.loc 3 14 58
 105 0084 23302501 		sd	s2,0(a0)
 106 0088 23340500 		sd	zero,8(a0)
 107              	.LVL11:
 108              	.LBE41:
 109              	.LBE40:
  36:src/../h/list.hpp ****         if (tail)
 110              		.loc 3 36 13
 111 008c 83B70401 		ld	a5,16(s1)
 112              		.loc 3 36 9
GAS LISTING /tmp/cciY2llU.s 			page 4


 113 0090 63800704 		beqz	a5,.L4
  37:src/../h/list.hpp ****         {
  38:src/../h/list.hpp ****             tail->next = elem;
 114              		.loc 3 38 13
 115 0094 23B4A700 		sd	a0,8(a5)
  39:src/../h/list.hpp ****             tail = elem;
 116              		.loc 3 39 13
 117 0098 23B8A400 		sd	a0,16(s1)
 118              	.L5:
 119              	.LVL12:
 120              	.LBE39:
 121              	.LBE38:
  11:src/sem.cpp   ****     TCB::running->setBlocked(true);
 122              		.loc 1 11 5 is_stmt 1
 123              		.loc 1 11 29 is_stmt 0
 124 009c 97070000 		la	a5,_ZN3TCB7runningE
 124      83B70700 
 125 00a4 83B70700 		ld	a5,0(a5)
 126              	.LVL13:
 127              	.LBB43:
 128              	.LBB44:
 129              		.file 4 "src/../h/tcb.hpp"
   1:src/../h/tcb.hpp **** 
   2:src/../h/tcb.hpp **** #ifndef OS_NOVI_PROJEKAT_17_7_2024_TCB_HPP
   3:src/../h/tcb.hpp **** #define OS_NOVI_PROJEKAT_17_7_2024_TCB_HPP
   4:src/../h/tcb.hpp **** 
   5:src/../h/tcb.hpp **** #include "../lib/hw.h"
   6:src/../h/tcb.hpp **** #include "scheduler.hpp"
   7:src/../h/tcb.hpp **** 
   8:src/../h/tcb.hpp **** 
   9:src/../h/tcb.hpp **** class TCB{
  10:src/../h/tcb.hpp **** public:
  11:src/../h/tcb.hpp **** 
  12:src/../h/tcb.hpp ****     ~TCB(){ delete[] stack;}
  13:src/../h/tcb.hpp **** 
  14:src/../h/tcb.hpp ****     bool isFinished() const{ return finished;}
  15:src/../h/tcb.hpp ****     bool isBlocked() const { return blocked;}
  16:src/../h/tcb.hpp **** 
  17:src/../h/tcb.hpp ****     void setFinished(bool value){ finished=value;}
  18:src/../h/tcb.hpp ****     void setBlocked (bool value){ blocked=value;}
 130              		.loc 4 18 35 is_stmt 1
 131              		.loc 4 18 42 is_stmt 0
 132 00a8 13071000 		li	a4,1
 133 00ac A384E702 		sb	a4,41(a5)
 134              	.LVL14:
 135              	.LBE44:
 136              	.LBE43:
  12:src/sem.cpp   ****     TCB::yield();
 137              		.loc 1 12 5 is_stmt 1
 138              		.loc 1 12 15 is_stmt 0
 139 00b0 97000000 		call	_ZN3TCB5yieldEv@plt
 139      E7800000 
 140              	.LVL15:
  13:src/sem.cpp   **** }
 141              		.loc 1 13 1
 142 00b8 83308101 		ld	ra,24(sp)
 143              		.cfi_remember_state
GAS LISTING /tmp/cciY2llU.s 			page 5


 144              		.cfi_restore 1
 145 00bc 03340101 		ld	s0,16(sp)
 146              		.cfi_restore 8
 147              		.cfi_def_cfa 2, 32
 148 00c0 83348100 		ld	s1,8(sp)
 149              		.cfi_restore 9
 150              	.LVL16:
 151 00c4 03390100 		ld	s2,0(sp)
 152              		.cfi_restore 18
 153 00c8 13010102 		addi	sp,sp,32
 154              		.cfi_def_cfa_offset 0
 155 00cc 67800000 		jr	ra
 156              	.LVL17:
 157              	.L4:
 158              		.cfi_restore_state
 159              	.LBB45:
 160              	.LBB42:
  40:src/../h/list.hpp ****         } else
  41:src/../h/list.hpp ****         {
  42:src/../h/list.hpp ****             head = tail = elem;
 161              		.loc 3 42 13
 162 00d0 23B8A400 		sd	a0,16(s1)
 163 00d4 23B4A400 		sd	a0,8(s1)
 164 00d8 6FF05FFC 		j	.L5
 165              	.LBE42:
 166              	.LBE45:
 167              		.cfi_endproc
 168              	.LFE39:
 170              		.align	2
 171              		.globl	_ZN3Sem7unblockEv
 173              	_ZN3Sem7unblockEv:
 174              	.LFB40:
  14:src/sem.cpp   **** 
  15:src/sem.cpp   **** void Sem::unblock() {
 175              		.loc 1 15 21 is_stmt 1
 176              		.cfi_startproc
 177              	.LVL18:
 178 00dc 130101FE 		addi	sp,sp,-32
 179              		.cfi_def_cfa_offset 32
 180 00e0 233C1100 		sd	ra,24(sp)
 181 00e4 23388100 		sd	s0,16(sp)
 182 00e8 23349100 		sd	s1,8(sp)
 183              		.cfi_offset 1, -8
 184              		.cfi_offset 8, -16
 185              		.cfi_offset 9, -24
 186 00ec 13040102 		addi	s0,sp,32
 187              		.cfi_def_cfa 8, 0
 188 00f0 93070500 		mv	a5,a0
  16:src/sem.cpp   ****     TCB* thread=blocked.removeFirst();
 189              		.loc 1 16 5
 190              	.LVL19:
 191              	.LBB46:
 192              	.LBB47:
  43:src/../h/list.hpp ****         }
  44:src/../h/list.hpp ****     }
  45:src/../h/list.hpp **** 
  46:src/../h/list.hpp ****     T *removeFirst()
GAS LISTING /tmp/cciY2llU.s 			page 6


  47:src/../h/list.hpp ****     {
  48:src/../h/list.hpp ****         if (!head) { return 0; }
 193              		.loc 3 48 14 is_stmt 0
 194 00f4 03358500 		ld	a0,8(a0)
 195              	.LVL20:
 196              		.loc 3 48 9
 197 00f8 63040504 		beqz	a0,.L10
 198              	.LVL21:
  49:src/../h/list.hpp **** 
  50:src/../h/list.hpp ****         Elem *elem = head;
  51:src/../h/list.hpp ****         head = head->next;
 199              		.loc 3 51 22
 200 00fc 03378500 		ld	a4,8(a0)
 201              		.loc 3 51 9
 202 0100 23B4E700 		sd	a4,8(a5)
  52:src/../h/list.hpp ****         if (!head) { tail = 0; }
 203              		.loc 3 52 9
 204 0104 630A0702 		beqz	a4,.L12
 205              	.L9:
  53:src/../h/list.hpp **** 
  54:src/../h/list.hpp ****         T *ret = elem->data;
 206              		.loc 3 54 12
 207 0108 83340500 		ld	s1,0(a0)
 208              	.LVL22:
  55:src/../h/list.hpp ****         delete elem;
 209              		.loc 3 55 9
 210 010c 97000000 		call	_ZdlPv@plt
 210      E7800000 
 211              	.LVL23:
 212              	.L8:
 213              	.LBE47:
 214              	.LBE46:
  17:src/sem.cpp   ****     thread->setBlocked(false);
 215              		.loc 1 17 5 is_stmt 1
 216              	.LBB49:
 217              	.LBB50:
 218              		.loc 4 18 35
 219              		.loc 4 18 42 is_stmt 0
 220 0114 A3840402 		sb	zero,41(s1)
 221              	.LVL24:
 222              	.LBE50:
 223              	.LBE49:
  18:src/sem.cpp   ****     Scheduler::put(thread);
 224              		.loc 1 18 5 is_stmt 1
 225              		.loc 1 18 19 is_stmt 0
 226 0118 13850400 		mv	a0,s1
 227 011c 97000000 		call	_ZN9Scheduler3putEP3TCB@plt
 227      E7800000 
 228              	.LVL25:
  19:src/sem.cpp   **** }
 229              		.loc 1 19 1
 230 0124 83308101 		ld	ra,24(sp)
 231              		.cfi_remember_state
 232              		.cfi_restore 1
 233 0128 03340101 		ld	s0,16(sp)
 234              		.cfi_restore 8
 235              		.cfi_def_cfa 2, 32
GAS LISTING /tmp/cciY2llU.s 			page 7


 236 012c 83348100 		ld	s1,8(sp)
 237              		.cfi_restore 9
 238              	.LVL26:
 239 0130 13010102 		addi	sp,sp,32
 240              		.cfi_def_cfa_offset 0
 241 0134 67800000 		jr	ra
 242              	.LVL27:
 243              	.L12:
 244              		.cfi_restore_state
 245              	.LBB51:
 246              	.LBB48:
  52:src/../h/list.hpp **** 
 247              		.loc 3 52 22
 248 0138 23B80700 		sd	zero,16(a5)
 249 013c 6FF0DFFC 		j	.L9
 250              	.LVL28:
 251              	.L10:
  48:src/../h/list.hpp **** 
 252              		.loc 3 48 29
 253 0140 93040500 		mv	s1,a0
 254 0144 6FF01FFD 		j	.L8
 255              	.LBE48:
 256              	.LBE51:
 257              		.cfi_endproc
 258              	.LFE40:
 260              		.align	2
 261              		.globl	_ZN3Sem4waitEv
 263              	_ZN3Sem4waitEv:
 264              	.LFB41:
  20:src/sem.cpp   **** 
  21:src/sem.cpp   **** int Sem::wait() {
 265              		.loc 1 21 17 is_stmt 1
 266              		.cfi_startproc
 267              	.LVL29:
  22:src/sem.cpp   ****     if(terminated)return -1;
 268              		.loc 1 22 5
 269              		.loc 1 22 8 is_stmt 0
 270 0148 83478501 		lbu	a5,24(a0)
 271              		.loc 1 22 5
 272 014c 63960704 		bnez	a5,.L15
  23:src/sem.cpp   ****     if(--val<0)block();
 273              		.loc 1 23 5 is_stmt 1
 274              		.loc 1 23 10 is_stmt 0
 275 0150 83270500 		lw	a5,0(a0)
 276              		.loc 1 23 8
 277 0154 9B87F7FF 		addiw	a5,a5,-1
 278              		.loc 1 23 13
 279 0158 2320F500 		sw	a5,0(a0)
 280              		.loc 1 23 5
 281 015c 13970702 		slli	a4,a5,32
 282 0160 63460700 		bltz	a4,.L21
  24:src/sem.cpp   ****     return 0;
 283              		.loc 1 24 12
 284 0164 13050000 		li	a0,0
 285              	.LVL30:
  25:src/sem.cpp   **** }
 286              		.loc 1 25 1
GAS LISTING /tmp/cciY2llU.s 			page 8


 287 0168 67800000 		ret
 288              	.LVL31:
 289              	.L21:
  21:src/sem.cpp   ****     if(terminated)return -1;
 290              		.loc 1 21 17 discriminator 1
 291 016c 130101FF 		addi	sp,sp,-16
 292              		.cfi_def_cfa_offset 16
 293 0170 23341100 		sd	ra,8(sp)
 294 0174 23308100 		sd	s0,0(sp)
 295              		.cfi_offset 1, -8
 296              		.cfi_offset 8, -16
 297 0178 13040101 		addi	s0,sp,16
 298              		.cfi_def_cfa 8, 0
  23:src/sem.cpp   ****     return 0;
 299              		.loc 1 23 16 is_stmt 1 discriminator 1
  23:src/sem.cpp   ****     return 0;
 300              		.loc 1 23 21 is_stmt 0 discriminator 1
 301 017c 97000000 		call	_ZN3Sem5blockEv
 301      E7800000 
 302              	.LVL32:
  24:src/sem.cpp   **** }
 303              		.loc 1 24 12 discriminator 1
 304 0184 13050000 		li	a0,0
 305              		.loc 1 25 1 discriminator 1
 306 0188 83308100 		ld	ra,8(sp)
 307              		.cfi_restore 1
 308 018c 03340100 		ld	s0,0(sp)
 309              		.cfi_restore 8
 310              		.cfi_def_cfa 2, 16
 311 0190 13010101 		addi	sp,sp,16
 312              		.cfi_def_cfa_offset 0
 313 0194 67800000 		jr	ra
 314              	.LVL33:
 315              	.L15:
  22:src/sem.cpp   ****     if(--val<0)block();
 316              		.loc 1 22 27
 317 0198 1305F0FF 		li	a0,-1
 318              	.LVL34:
 319 019c 67800000 		ret
 320              		.cfi_endproc
 321              	.LFE41:
 323              		.align	2
 324              		.globl	_ZN3Sem6signalEv
 326              	_ZN3Sem6signalEv:
 327              	.LFB42:
  26:src/sem.cpp   **** 
  27:src/sem.cpp   **** int Sem::signal() {
 328              		.loc 1 27 19 is_stmt 1
 329              		.cfi_startproc
 330              	.LVL35:
  28:src/sem.cpp   ****     if(terminated) return -1;
 331              		.loc 1 28 5
 332              		.loc 1 28 8 is_stmt 0
 333 01a0 83478501 		lbu	a5,24(a0)
 334              		.loc 1 28 5
 335 01a4 63960704 		bnez	a5,.L24
  29:src/sem.cpp   ****     if(++val<=0)unblock();
GAS LISTING /tmp/cciY2llU.s 			page 9


 336              		.loc 1 29 5 is_stmt 1
 337              		.loc 1 29 10 is_stmt 0
 338 01a8 83270500 		lw	a5,0(a0)
 339              		.loc 1 29 8
 340 01ac 9B871700 		addiw	a5,a5,1
 341 01b0 1B870700 		sext.w	a4,a5
 342              		.loc 1 29 13
 343 01b4 2320F500 		sw	a5,0(a0)
 344              		.loc 1 29 5
 345 01b8 6356E000 		blez	a4,.L30
  30:src/sem.cpp   ****     return 0;
 346              		.loc 1 30 12
 347 01bc 13050000 		li	a0,0
 348              	.LVL36:
  31:src/sem.cpp   **** }
 349              		.loc 1 31 1
 350 01c0 67800000 		ret
 351              	.LVL37:
 352              	.L30:
  27:src/sem.cpp   ****     if(terminated) return -1;
 353              		.loc 1 27 19 discriminator 1
 354 01c4 130101FF 		addi	sp,sp,-16
 355              		.cfi_def_cfa_offset 16
 356 01c8 23341100 		sd	ra,8(sp)
 357 01cc 23308100 		sd	s0,0(sp)
 358              		.cfi_offset 1, -8
 359              		.cfi_offset 8, -16
 360 01d0 13040101 		addi	s0,sp,16
 361              		.cfi_def_cfa 8, 0
  29:src/sem.cpp   ****     return 0;
 362              		.loc 1 29 17 is_stmt 1 discriminator 1
  29:src/sem.cpp   ****     return 0;
 363              		.loc 1 29 24 is_stmt 0 discriminator 1
 364 01d4 97000000 		call	_ZN3Sem7unblockEv
 364      E7800000 
 365              	.LVL38:
  30:src/sem.cpp   **** }
 366              		.loc 1 30 12 discriminator 1
 367 01dc 13050000 		li	a0,0
 368              		.loc 1 31 1 discriminator 1
 369 01e0 83308100 		ld	ra,8(sp)
 370              		.cfi_restore 1
 371 01e4 03340100 		ld	s0,0(sp)
 372              		.cfi_restore 8
 373              		.cfi_def_cfa 2, 16
 374 01e8 13010101 		addi	sp,sp,16
 375              		.cfi_def_cfa_offset 0
 376 01ec 67800000 		jr	ra
 377              	.LVL39:
 378              	.L24:
  28:src/sem.cpp   ****     if(++val<=0)unblock();
 379              		.loc 1 28 28
 380 01f0 1305F0FF 		li	a0,-1
 381              	.LVL40:
 382 01f4 67800000 		ret
 383              		.cfi_endproc
 384              	.LFE42:
GAS LISTING /tmp/cciY2llU.s 			page 10


 386              		.align	2
 387              		.globl	_ZN3Sem5closeEv
 389              	_ZN3Sem5closeEv:
 390              	.LFB43:
  32:src/sem.cpp   **** 
  33:src/sem.cpp   **** int Sem::close() {
 391              		.loc 1 33 18 is_stmt 1
 392              		.cfi_startproc
 393              	.LVL41:
 394 01f8 130101FE 		addi	sp,sp,-32
 395              		.cfi_def_cfa_offset 32
 396 01fc 233C1100 		sd	ra,24(sp)
 397 0200 23388100 		sd	s0,16(sp)
 398 0204 23349100 		sd	s1,8(sp)
 399              		.cfi_offset 1, -8
 400              		.cfi_offset 8, -16
 401              		.cfi_offset 9, -24
 402 0208 13040102 		addi	s0,sp,32
 403              		.cfi_def_cfa 8, 0
 404 020c 93040500 		mv	s1,a0
  34:src/sem.cpp   ****     if(terminated)return -1;
 405              		.loc 1 34 5
 406              		.loc 1 34 8 is_stmt 0
 407 0210 83478501 		lbu	a5,24(a0)
 408              		.loc 1 34 5
 409 0214 638C0700 		beqz	a5,.L37
 410              		.loc 1 34 27
 411 0218 1305F0FF 		li	a0,-1
 412              	.LVL42:
 413 021c 6F00C005 		j	.L32
 414              	.LVL43:
 415              	.L40:
 416              	.LBB60:
 417              	.LBB61:
  52:src/../h/list.hpp **** 
 418              		.loc 3 52 22
 419 0220 23B80400 		sd	zero,16(s1)
 420              	.L36:
 421              	.LVL44:
 422              		.loc 3 55 9
 423 0224 97000000 		call	_ZdlPv@plt
 423      E7800000 
 424              	.LVL45:
 425              	.L37:
 426              	.LBE61:
 427              	.LBE60:
  35:src/sem.cpp   **** 
  36:src/sem.cpp   ****     while(blocked.peekFirst() != nullptr){
 428              		.loc 1 36 5 is_stmt 1
 429              		.loc 1 36 31
 430              	.LBB63:
 431              	.LBB64:
  56:src/../h/list.hpp ****         return ret;
  57:src/../h/list.hpp ****     }
  58:src/../h/list.hpp **** 
  59:src/../h/list.hpp ****     T *peekFirst()
  60:src/../h/list.hpp ****     {
GAS LISTING /tmp/cciY2llU.s 			page 11


  61:src/../h/list.hpp ****         if (!head) { return 0; }
 432              		.loc 3 61 14 is_stmt 0
 433 022c 83B78400 		ld	a5,8(s1)
 434              		.loc 3 61 9
 435 0230 638E0702 		beqz	a5,.L33
  62:src/../h/list.hpp ****         return head->data;
 436              		.loc 3 62 22
 437 0234 83B70700 		ld	a5,0(a5)
 438              	.LVL46:
 439              	.LBE64:
 440              	.LBE63:
 441              		.loc 1 36 31
 442 0238 638A0702 		beqz	a5,.L33
  37:src/sem.cpp   ****         blocked.peekFirst()->setBlocked(false);
 443              		.loc 1 37 9 is_stmt 1
 444              	.LVL47:
 445              	.LBB65:
 446              	.LBB66:
 447              		.loc 4 18 35
 448              		.loc 4 18 42 is_stmt 0
 449 023c A3840702 		sb	zero,41(a5)
 450              	.LVL48:
 451              	.LBE66:
 452              	.LBE65:
  38:src/sem.cpp   ****         Scheduler::put(blocked.peekFirst());
 453              		.loc 1 38 9 is_stmt 1
 454              	.LBB67:
 455              	.LBB68:
  61:src/../h/list.hpp ****         return head->data;
 456              		.loc 3 61 14 is_stmt 0
 457 0240 03B58400 		ld	a0,8(s1)
  61:src/../h/list.hpp ****         return head->data;
 458              		.loc 3 61 9
 459 0244 63040500 		beqz	a0,.L34
 460              		.loc 3 62 22
 461 0248 03350500 		ld	a0,0(a0)
 462              	.L34:
 463              	.LVL49:
 464              	.LBE68:
 465              	.LBE67:
 466              		.loc 1 38 23
 467 024c 97000000 		call	_ZN9Scheduler3putEP3TCB@plt
 467      E7800000 
 468              	.LVL50:
  39:src/sem.cpp   ****         blocked.removeFirst();
 469              		.loc 1 39 9 is_stmt 1
 470              	.LBB69:
 471              	.LBB62:
  48:src/../h/list.hpp **** 
 472              		.loc 3 48 14 is_stmt 0
 473 0254 03B58400 		ld	a0,8(s1)
  48:src/../h/list.hpp **** 
 474              		.loc 3 48 9
 475 0258 E30A05FC 		beqz	a0,.L37
 476              	.LVL51:
  51:src/../h/list.hpp ****         if (!head) { tail = 0; }
 477              		.loc 3 51 22
GAS LISTING /tmp/cciY2llU.s 			page 12


 478 025c 83378500 		ld	a5,8(a0)
  51:src/../h/list.hpp ****         if (!head) { tail = 0; }
 479              		.loc 3 51 9
 480 0260 23B4F400 		sd	a5,8(s1)
  52:src/../h/list.hpp **** 
 481              		.loc 3 52 9
 482 0264 E39007FC 		bnez	a5,.L36
 483 0268 6FF09FFB 		j	.L40
 484              	.LVL52:
 485              	.L33:
 486              	.LBE62:
 487              	.LBE69:
  40:src/sem.cpp   ****     }
  41:src/sem.cpp   ****     terminated=true;
 488              		.loc 1 41 5 is_stmt 1
 489              		.loc 1 41 15 is_stmt 0
 490 026c 93071000 		li	a5,1
 491 0270 238CF400 		sb	a5,24(s1)
  42:src/sem.cpp   ****     return 0;
 492              		.loc 1 42 5 is_stmt 1
 493              		.loc 1 42 12 is_stmt 0
 494 0274 13050000 		li	a0,0
 495              	.L32:
  43:src/sem.cpp   **** 
  44:src/sem.cpp   **** }
 496              		.loc 1 44 1
 497 0278 83308101 		ld	ra,24(sp)
 498              		.cfi_restore 1
 499 027c 03340101 		ld	s0,16(sp)
 500              		.cfi_restore 8
 501              		.cfi_def_cfa 2, 32
 502 0280 83348100 		ld	s1,8(sp)
 503              		.cfi_restore 9
 504              	.LVL53:
 505 0284 13010102 		addi	sp,sp,32
 506              		.cfi_def_cfa_offset 0
 507 0288 67800000 		jr	ra
 508              		.cfi_endproc
 509              	.LFE43:
 511              		.align	2
 512              		.globl	_ZN3Sem7tryWaitEv
 514              	_ZN3Sem7tryWaitEv:
 515              	.LFB44:
  45:src/sem.cpp   **** 
  46:src/sem.cpp   **** int Sem::tryWait() {
 516              		.loc 1 46 20 is_stmt 1
 517              		.cfi_startproc
 518              	.LVL54:
 519 028c 130101FF 		addi	sp,sp,-16
 520              		.cfi_def_cfa_offset 16
 521 0290 23348100 		sd	s0,8(sp)
 522              		.cfi_offset 8, -8
 523 0294 13040101 		addi	s0,sp,16
 524              		.cfi_def_cfa 8, 0
  47:src/sem.cpp   ****     if(terminated) return -1;
 525              		.loc 1 47 5
 526              		.loc 1 47 8 is_stmt 0
GAS LISTING /tmp/cciY2llU.s 			page 13


 527 0298 83478501 		lbu	a5,24(a0)
 528              		.loc 1 47 5
 529 029c 63920702 		bnez	a5,.L43
  48:src/sem.cpp   ****     int returnValue;
 530              		.loc 1 48 5 is_stmt 1
  49:src/sem.cpp   ****     if(val-1<0) returnValue=0;
 531              		.loc 1 49 5
 532              		.loc 1 49 8 is_stmt 0
 533 02a0 83270500 		lw	a5,0(a0)
 534              		.loc 1 49 5
 535 02a4 6352F002 		blez	a5,.L44
  50:src/sem.cpp   ****     else {
  51:src/sem.cpp   ****         returnValue=1;
 536              		.loc 1 51 9 is_stmt 1
 537              	.LVL55:
  52:src/sem.cpp   ****         val--;
 538              		.loc 1 52 9
 539              		.loc 1 52 12 is_stmt 0
 540 02a8 9B87F7FF 		addiw	a5,a5,-1
 541 02ac 2320F500 		sw	a5,0(a0)
  51:src/sem.cpp   ****         val--;
 542              		.loc 1 51 20
 543 02b0 13051000 		li	a0,1
 544              	.LVL56:
 545              	.L42:
  53:src/sem.cpp   ****     }
  54:src/sem.cpp   ****     return returnValue;
  55:src/sem.cpp   **** }...
 546              		.loc 1 55 1
 547 02b4 03348100 		ld	s0,8(sp)
 548              		.cfi_remember_state
 549              		.cfi_restore 8
 550              		.cfi_def_cfa 2, 16
 551 02b8 13010101 		addi	sp,sp,16
 552              		.cfi_def_cfa_offset 0
 553 02bc 67800000 		jr	ra
 554              	.LVL57:
 555              	.L43:
 556              		.cfi_restore_state
  47:src/sem.cpp   ****     if(terminated) return -1;
 557              		.loc 1 47 28
 558 02c0 1305F0FF 		li	a0,-1
 559              	.LVL58:
 560 02c4 6FF01FFF 		j	.L42
 561              	.LVL59:
 562              	.L44:
  49:src/sem.cpp   ****     if(val-1<0) returnValue=0;
 563              		.loc 1 49 28
 564 02c8 13050000 		li	a0,0
 565              	.LVL60:
 566 02cc 6FF09FFE 		j	.L42
 567              		.cfi_endproc
 568              	.LFE44:
 570              	.Letext0:
 571              		.file 5 "src/../h/../lib/hw.h"
 572              		.file 6 "src/../h/scheduler.hpp"
GAS LISTING /tmp/cciY2llU.s 			page 14


DEFINED SYMBOLS
                            *ABS*:0000000000000000 sem.cpp
     /tmp/cciY2llU.s:9      .text:0000000000000000 _ZN3Sem10create_semEi
     /tmp/cciY2llU.s:13     .text:0000000000000000 .L0 
     /tmp/cciY2llU.s:15     .text:0000000000000000 .L0 
     /tmp/cciY2llU.s:16     .text:0000000000000004 .L0 
     /tmp/cciY2llU.s:20     .text:0000000000000010 .L0 
     /tmp/cciY2llU.s:21     .text:0000000000000010 .L0 
     /tmp/cciY2llU.s:22     .text:0000000000000010 .L0 
     /tmp/cciY2llU.s:24     .text:0000000000000014 .L0 
     /tmp/cciY2llU.s:27     .text:0000000000000018 .L0 
     /tmp/cciY2llU.s:28     .text:0000000000000018 .L0 
     /tmp/cciY2llU.s:36     .text:0000000000000024 .L0 
     /tmp/cciY2llU.s:45     .text:0000000000000030 .L0 
     /tmp/cciY2llU.s:51     .text:0000000000000038 .L0 
     /tmp/cciY2llU.s:56     .text:000000000000003c .L0 
     /tmp/cciY2llU.s:57     .text:0000000000000040 .L0 
     /tmp/cciY2llU.s:59     .text:0000000000000044 .L0 
     /tmp/cciY2llU.s:60     .text:0000000000000044 .L0 
     /tmp/cciY2llU.s:62     .text:0000000000000048 .L0 
     /tmp/cciY2llU.s:64     .text:000000000000004c .L0 
     /tmp/cciY2llU.s:66     .text:0000000000000050 .L0 
     /tmp/cciY2llU.s:72     .text:0000000000000050 _ZN3Sem5blockEv
     /tmp/cciY2llU.s:75     .text:0000000000000050 .L0 
     /tmp/cciY2llU.s:77     .text:0000000000000050 .L0 
     /tmp/cciY2llU.s:78     .text:0000000000000054 .L0 
     /tmp/cciY2llU.s:83     .text:0000000000000064 .L0 
     /tmp/cciY2llU.s:84     .text:0000000000000064 .L0 
     /tmp/cciY2llU.s:85     .text:0000000000000064 .L0 
     /tmp/cciY2llU.s:86     .text:0000000000000064 .L0 
     /tmp/cciY2llU.s:88     .text:0000000000000068 .L0 
     /tmp/cciY2llU.s:91     .text:000000000000006c .L0 
     /tmp/cciY2llU.s:92     .text:000000000000006c .L0 
     /tmp/cciY2llU.s:98     .text:0000000000000078 .L0 
     /tmp/cciY2llU.s:105    .text:0000000000000084 .L0 
     /tmp/cciY2llU.s:111    .text:000000000000008c .L0 
     /tmp/cciY2llU.s:113    .text:0000000000000090 .L0 
     /tmp/cciY2llU.s:115    .text:0000000000000094 .L0 
     /tmp/cciY2llU.s:117    .text:0000000000000098 .L0 
     /tmp/cciY2llU.s:123    .text:000000000000009c .L0 
     /tmp/cciY2llU.s:124    .text:000000000000009c .L0 
     /tmp/cciY2llU.s:131    .text:00000000000000a8 .L0 
     /tmp/cciY2llU.s:132    .text:00000000000000a8 .L0 
     /tmp/cciY2llU.s:138    .text:00000000000000b0 .L0 
     /tmp/cciY2llU.s:139    .text:00000000000000b0 .L0 
     /tmp/cciY2llU.s:142    .text:00000000000000b8 .L0 
     /tmp/cciY2llU.s:143    .text:00000000000000bc .L0 
     /tmp/cciY2llU.s:144    .text:00000000000000bc .L0 
     /tmp/cciY2llU.s:146    .text:00000000000000c0 .L0 
     /tmp/cciY2llU.s:147    .text:00000000000000c0 .L0 
     /tmp/cciY2llU.s:149    .text:00000000000000c4 .L0 
     /tmp/cciY2llU.s:152    .text:00000000000000c8 .L0 
     /tmp/cciY2llU.s:154    .text:00000000000000cc .L0 
     /tmp/cciY2llU.s:158    .text:00000000000000d0 .L0 
     /tmp/cciY2llU.s:162    .text:00000000000000d0 .L0 
     /tmp/cciY2llU.s:167    .text:00000000000000dc .L0 
     /tmp/cciY2llU.s:173    .text:00000000000000dc _ZN3Sem7unblockEv
GAS LISTING /tmp/cciY2llU.s 			page 15


     /tmp/cciY2llU.s:176    .text:00000000000000dc .L0 
     /tmp/cciY2llU.s:178    .text:00000000000000dc .L0 
     /tmp/cciY2llU.s:179    .text:00000000000000e0 .L0 
     /tmp/cciY2llU.s:183    .text:00000000000000ec .L0 
     /tmp/cciY2llU.s:184    .text:00000000000000ec .L0 
     /tmp/cciY2llU.s:185    .text:00000000000000ec .L0 
     /tmp/cciY2llU.s:187    .text:00000000000000f0 .L0 
     /tmp/cciY2llU.s:193    .text:00000000000000f4 .L0 
     /tmp/cciY2llU.s:194    .text:00000000000000f4 .L0 
     /tmp/cciY2llU.s:197    .text:00000000000000f8 .L0 
     /tmp/cciY2llU.s:200    .text:00000000000000fc .L0 
     /tmp/cciY2llU.s:202    .text:0000000000000100 .L0 
     /tmp/cciY2llU.s:204    .text:0000000000000104 .L0 
     /tmp/cciY2llU.s:207    .text:0000000000000108 .L0 
     /tmp/cciY2llU.s:210    .text:000000000000010c .L0 
     /tmp/cciY2llU.s:218    .text:0000000000000114 .L0 
     /tmp/cciY2llU.s:219    .text:0000000000000114 .L0 
     /tmp/cciY2llU.s:220    .text:0000000000000114 .L0 
     /tmp/cciY2llU.s:225    .text:0000000000000118 .L0 
     /tmp/cciY2llU.s:226    .text:0000000000000118 .L0 
     /tmp/cciY2llU.s:230    .text:0000000000000124 .L0 
     /tmp/cciY2llU.s:231    .text:0000000000000128 .L0 
     /tmp/cciY2llU.s:232    .text:0000000000000128 .L0 
     /tmp/cciY2llU.s:234    .text:000000000000012c .L0 
     /tmp/cciY2llU.s:235    .text:000000000000012c .L0 
     /tmp/cciY2llU.s:237    .text:0000000000000130 .L0 
     /tmp/cciY2llU.s:240    .text:0000000000000134 .L0 
     /tmp/cciY2llU.s:244    .text:0000000000000138 .L0 
     /tmp/cciY2llU.s:248    .text:0000000000000138 .L0 
     /tmp/cciY2llU.s:253    .text:0000000000000140 .L0 
     /tmp/cciY2llU.s:257    .text:0000000000000148 .L0 
     /tmp/cciY2llU.s:263    .text:0000000000000148 _ZN3Sem4waitEv
     /tmp/cciY2llU.s:266    .text:0000000000000148 .L0 
     /tmp/cciY2llU.s:268    .text:0000000000000148 .L0 
     /tmp/cciY2llU.s:269    .text:0000000000000148 .L0 
     /tmp/cciY2llU.s:270    .text:0000000000000148 .L0 
     /tmp/cciY2llU.s:272    .text:000000000000014c .L0 
     /tmp/cciY2llU.s:274    .text:0000000000000150 .L0 
     /tmp/cciY2llU.s:275    .text:0000000000000150 .L0 
     /tmp/cciY2llU.s:277    .text:0000000000000154 .L0 
     /tmp/cciY2llU.s:279    .text:0000000000000158 .L0 
     /tmp/cciY2llU.s:281    .text:000000000000015c .L0 
     /tmp/cciY2llU.s:284    .text:0000000000000164 .L0 
     /tmp/cciY2llU.s:287    .text:0000000000000168 .L0 
     /tmp/cciY2llU.s:291    .text:000000000000016c .L0 
     /tmp/cciY2llU.s:292    .text:0000000000000170 .L0 
     /tmp/cciY2llU.s:295    .text:0000000000000178 .L0 
     /tmp/cciY2llU.s:296    .text:0000000000000178 .L0 
     /tmp/cciY2llU.s:298    .text:000000000000017c .L0 
     /tmp/cciY2llU.s:300    .text:000000000000017c .L0 
     /tmp/cciY2llU.s:301    .text:000000000000017c .L0 
     /tmp/cciY2llU.s:304    .text:0000000000000184 .L0 
     /tmp/cciY2llU.s:306    .text:0000000000000188 .L0 
     /tmp/cciY2llU.s:307    .text:000000000000018c .L0 
     /tmp/cciY2llU.s:309    .text:0000000000000190 .L0 
     /tmp/cciY2llU.s:310    .text:0000000000000190 .L0 
     /tmp/cciY2llU.s:312    .text:0000000000000194 .L0 
GAS LISTING /tmp/cciY2llU.s 			page 16


     /tmp/cciY2llU.s:317    .text:0000000000000198 .L0 
     /tmp/cciY2llU.s:320    .text:00000000000001a0 .L0 
     /tmp/cciY2llU.s:326    .text:00000000000001a0 _ZN3Sem6signalEv
     /tmp/cciY2llU.s:329    .text:00000000000001a0 .L0 
     /tmp/cciY2llU.s:331    .text:00000000000001a0 .L0 
     /tmp/cciY2llU.s:332    .text:00000000000001a0 .L0 
     /tmp/cciY2llU.s:333    .text:00000000000001a0 .L0 
     /tmp/cciY2llU.s:335    .text:00000000000001a4 .L0 
     /tmp/cciY2llU.s:337    .text:00000000000001a8 .L0 
     /tmp/cciY2llU.s:338    .text:00000000000001a8 .L0 
     /tmp/cciY2llU.s:340    .text:00000000000001ac .L0 
     /tmp/cciY2llU.s:343    .text:00000000000001b4 .L0 
     /tmp/cciY2llU.s:345    .text:00000000000001b8 .L0 
     /tmp/cciY2llU.s:347    .text:00000000000001bc .L0 
     /tmp/cciY2llU.s:350    .text:00000000000001c0 .L0 
     /tmp/cciY2llU.s:354    .text:00000000000001c4 .L0 
     /tmp/cciY2llU.s:355    .text:00000000000001c8 .L0 
     /tmp/cciY2llU.s:358    .text:00000000000001d0 .L0 
     /tmp/cciY2llU.s:359    .text:00000000000001d0 .L0 
     /tmp/cciY2llU.s:361    .text:00000000000001d4 .L0 
     /tmp/cciY2llU.s:363    .text:00000000000001d4 .L0 
     /tmp/cciY2llU.s:364    .text:00000000000001d4 .L0 
     /tmp/cciY2llU.s:367    .text:00000000000001dc .L0 
     /tmp/cciY2llU.s:369    .text:00000000000001e0 .L0 
     /tmp/cciY2llU.s:370    .text:00000000000001e4 .L0 
     /tmp/cciY2llU.s:372    .text:00000000000001e8 .L0 
     /tmp/cciY2llU.s:373    .text:00000000000001e8 .L0 
     /tmp/cciY2llU.s:375    .text:00000000000001ec .L0 
     /tmp/cciY2llU.s:380    .text:00000000000001f0 .L0 
     /tmp/cciY2llU.s:383    .text:00000000000001f8 .L0 
     /tmp/cciY2llU.s:389    .text:00000000000001f8 _ZN3Sem5closeEv
     /tmp/cciY2llU.s:392    .text:00000000000001f8 .L0 
     /tmp/cciY2llU.s:394    .text:00000000000001f8 .L0 
     /tmp/cciY2llU.s:395    .text:00000000000001fc .L0 
     /tmp/cciY2llU.s:399    .text:0000000000000208 .L0 
     /tmp/cciY2llU.s:400    .text:0000000000000208 .L0 
     /tmp/cciY2llU.s:401    .text:0000000000000208 .L0 
     /tmp/cciY2llU.s:403    .text:000000000000020c .L0 
     /tmp/cciY2llU.s:406    .text:0000000000000210 .L0 
     /tmp/cciY2llU.s:407    .text:0000000000000210 .L0 
     /tmp/cciY2llU.s:409    .text:0000000000000214 .L0 
     /tmp/cciY2llU.s:411    .text:0000000000000218 .L0 
     /tmp/cciY2llU.s:419    .text:0000000000000220 .L0 
     /tmp/cciY2llU.s:423    .text:0000000000000224 .L0 
     /tmp/cciY2llU.s:429    .text:000000000000022c .L0 
     /tmp/cciY2llU.s:432    .text:000000000000022c .L0 
     /tmp/cciY2llU.s:433    .text:000000000000022c .L0 
     /tmp/cciY2llU.s:435    .text:0000000000000230 .L0 
     /tmp/cciY2llU.s:437    .text:0000000000000234 .L0 
     /tmp/cciY2llU.s:442    .text:0000000000000238 .L0 
     /tmp/cciY2llU.s:447    .text:000000000000023c .L0 
     /tmp/cciY2llU.s:448    .text:000000000000023c .L0 
     /tmp/cciY2llU.s:449    .text:000000000000023c .L0 
     /tmp/cciY2llU.s:456    .text:0000000000000240 .L0 
     /tmp/cciY2llU.s:457    .text:0000000000000240 .L0 
     /tmp/cciY2llU.s:459    .text:0000000000000244 .L0 
     /tmp/cciY2llU.s:461    .text:0000000000000248 .L0 
GAS LISTING /tmp/cciY2llU.s 			page 17


     /tmp/cciY2llU.s:467    .text:000000000000024c .L0 
     /tmp/cciY2llU.s:472    .text:0000000000000254 .L0 
     /tmp/cciY2llU.s:473    .text:0000000000000254 .L0 
     /tmp/cciY2llU.s:475    .text:0000000000000258 .L0 
     /tmp/cciY2llU.s:478    .text:000000000000025c .L0 
     /tmp/cciY2llU.s:480    .text:0000000000000260 .L0 
     /tmp/cciY2llU.s:482    .text:0000000000000264 .L0 
     /tmp/cciY2llU.s:489    .text:000000000000026c .L0 
     /tmp/cciY2llU.s:490    .text:000000000000026c .L0 
     /tmp/cciY2llU.s:493    .text:0000000000000274 .L0 
     /tmp/cciY2llU.s:494    .text:0000000000000274 .L0 
     /tmp/cciY2llU.s:497    .text:0000000000000278 .L0 
     /tmp/cciY2llU.s:498    .text:000000000000027c .L0 
     /tmp/cciY2llU.s:500    .text:0000000000000280 .L0 
     /tmp/cciY2llU.s:501    .text:0000000000000280 .L0 
     /tmp/cciY2llU.s:503    .text:0000000000000284 .L0 
     /tmp/cciY2llU.s:506    .text:0000000000000288 .L0 
     /tmp/cciY2llU.s:508    .text:000000000000028c .L0 
     /tmp/cciY2llU.s:514    .text:000000000000028c _ZN3Sem7tryWaitEv
     /tmp/cciY2llU.s:517    .text:000000000000028c .L0 
     /tmp/cciY2llU.s:519    .text:000000000000028c .L0 
     /tmp/cciY2llU.s:520    .text:0000000000000290 .L0 
     /tmp/cciY2llU.s:522    .text:0000000000000294 .L0 
     /tmp/cciY2llU.s:524    .text:0000000000000298 .L0 
     /tmp/cciY2llU.s:526    .text:0000000000000298 .L0 
     /tmp/cciY2llU.s:527    .text:0000000000000298 .L0 
     /tmp/cciY2llU.s:529    .text:000000000000029c .L0 
     /tmp/cciY2llU.s:531    .text:00000000000002a0 .L0 
     /tmp/cciY2llU.s:532    .text:00000000000002a0 .L0 
     /tmp/cciY2llU.s:533    .text:00000000000002a0 .L0 
     /tmp/cciY2llU.s:535    .text:00000000000002a4 .L0 
     /tmp/cciY2llU.s:538    .text:00000000000002a8 .L0 
     /tmp/cciY2llU.s:539    .text:00000000000002a8 .L0 
     /tmp/cciY2llU.s:540    .text:00000000000002a8 .L0 
     /tmp/cciY2llU.s:543    .text:00000000000002b0 .L0 
     /tmp/cciY2llU.s:547    .text:00000000000002b4 .L0 
     /tmp/cciY2llU.s:548    .text:00000000000002b8 .L0 
     /tmp/cciY2llU.s:549    .text:00000000000002b8 .L0 
     /tmp/cciY2llU.s:550    .text:00000000000002b8 .L0 
     /tmp/cciY2llU.s:552    .text:00000000000002bc .L0 
     /tmp/cciY2llU.s:556    .text:00000000000002c0 .L0 
     /tmp/cciY2llU.s:558    .text:00000000000002c0 .L0 
     /tmp/cciY2llU.s:564    .text:00000000000002c8 .L0 
     /tmp/cciY2llU.s:567    .text:00000000000002d0 .L0 
     /tmp/cciY2llU.s:573    .text:00000000000002d0 .L0 
     /tmp/cciY2llU.s:92     .text:000000000000006c .L0 
     /tmp/cciY2llU.s:124    .text:000000000000009c .L0 
     /tmp/cciY2llU.s:157    .text:00000000000000d0 .L4
     /tmp/cciY2llU.s:118    .text:000000000000009c .L5
     /tmp/cciY2llU.s:251    .text:0000000000000140 .L10
     /tmp/cciY2llU.s:243    .text:0000000000000138 .L12
     /tmp/cciY2llU.s:205    .text:0000000000000108 .L9
     /tmp/cciY2llU.s:212    .text:0000000000000114 .L8
     /tmp/cciY2llU.s:315    .text:0000000000000198 .L15
     /tmp/cciY2llU.s:289    .text:000000000000016c .L21
     /tmp/cciY2llU.s:378    .text:00000000000001f0 .L24
     /tmp/cciY2llU.s:352    .text:00000000000001c4 .L30
GAS LISTING /tmp/cciY2llU.s 			page 18


     /tmp/cciY2llU.s:425    .text:000000000000022c .L37
     /tmp/cciY2llU.s:495    .text:0000000000000278 .L32
     /tmp/cciY2llU.s:485    .text:000000000000026c .L33
     /tmp/cciY2llU.s:462    .text:000000000000024c .L34
     /tmp/cciY2llU.s:420    .text:0000000000000224 .L36
     /tmp/cciY2llU.s:415    .text:0000000000000220 .L40
     /tmp/cciY2llU.s:555    .text:00000000000002c0 .L43
     /tmp/cciY2llU.s:562    .text:00000000000002c8 .L44
     /tmp/cciY2llU.s:545    .text:00000000000002b4 .L42
     /tmp/cciY2llU.s:1890   .debug_abbrev:0000000000000000 .Ldebug_abbrev0
     /tmp/cciY2llU.s:3521   .debug_str:000000000000059e .LASF105
     /tmp/cciY2llU.s:3391   .debug_str:000000000000021f .LASF106
     /tmp/cciY2llU.s:3473   .debug_str:0000000000000469 .LASF107
     /tmp/cciY2llU.s:5      .text:0000000000000000 .Ltext0
     /tmp/cciY2llU.s:570    .text:00000000000002d0 .Letext0
     /tmp/cciY2llU.s:3319   .debug_line:0000000000000000 .Ldebug_line0
     /tmp/cciY2llU.s:3467   .debug_str:000000000000044d .LASF0
     /tmp/cciY2llU.s:3479   .debug_str:00000000000004a6 .LASF1
     /tmp/cciY2llU.s:3453   .debug_str:00000000000003e0 .LASF2
     /tmp/cciY2llU.s:3373   .debug_str:000000000000018b .LASF3
     /tmp/cciY2llU.s:3419   .debug_str:0000000000000315 .LASF4
     /tmp/cciY2llU.s:3513   .debug_str:0000000000000560 .LASF5
     /tmp/cciY2llU.s:3337   .debug_str:0000000000000087 .LASF6
     /tmp/cciY2llU.s:3481   .debug_str:00000000000004b9 .LASF7
     /tmp/cciY2llU.s:3465   .debug_str:000000000000043a .LASF8
     /tmp/cciY2llU.s:3531   .debug_str:0000000000000698 .LASF9
     /tmp/cciY2llU.s:3403   .debug_str:0000000000000272 .LASF10
     /tmp/cciY2llU.s:3491   .debug_str:00000000000004ed .LASF11
     /tmp/cciY2llU.s:3525   .debug_str:000000000000066e .LASF12
     /tmp/cciY2llU.s:3343   .debug_str:00000000000000a1 .LASF13
     /tmp/cciY2llU.s:3325   .debug_str:0000000000000026 .LASF14
     /tmp/cciY2llU.s:3355   .debug_str:00000000000000fe .LASF15
     /tmp/cciY2llU.s:3505   .debug_str:0000000000000539 .LASF16
     /tmp/cciY2llU.s:3367   .debug_str:000000000000016a .LASF17
     /tmp/cciY2llU.s:3489   .debug_str:00000000000004e3 .LASF18
     /tmp/cciY2llU.s:3399   .debug_str:0000000000000259 .LASF108
     /tmp/cciY2llU.s:3413   .debug_str:00000000000002d4 .LASF109
     /tmp/cciY2llU.s:3353   .debug_str:00000000000000e6 .LASF110
     /tmp/cciY2llU.s:3441   .debug_str:00000000000003a2 .LASF19
     /tmp/cciY2llU.s:3527   .debug_str:000000000000067d .LASF22
     /tmp/cciY2llU.s:3501   .debug_str:000000000000051d .LASF20
     /tmp/cciY2llU.s:3549   .debug_str:0000000000000732 .LASF21
     /tmp/cciY2llU.s:3459   .debug_str:000000000000040a .LASF65
     /tmp/cciY2llU.s:3371   .debug_str:0000000000000186 .LASF23
     /tmp/cciY2llU.s:3445   .debug_str:00000000000003b8 .LASF24
     /tmp/cciY2llU.s:3417   .debug_str:0000000000000310 .LASF25
     /tmp/cciY2llU.s:3517   .debug_str:0000000000000582 .LASF27
     /tmp/cciY2llU.s:3503   .debug_str:0000000000000522 .LASF32
     /tmp/cciY2llU.s:3461   .debug_str:0000000000000429 .LASF111
     /tmp/cciY2llU.s:3409   .debug_str:00000000000002a9 .LASF112
     /tmp/cciY2llU.s:3519   .debug_str:0000000000000595 .LASF26
     /tmp/cciY2llU.s:3381   .debug_str:00000000000001e4 .LASF28
     /tmp/cciY2llU.s:3401   .debug_str:000000000000026a .LASF29
     /tmp/cciY2llU.s:3377   .debug_str:000000000000019e .LASF30
     /tmp/cciY2llU.s:3523   .debug_str:0000000000000662 .LASF31
     /tmp/cciY2llU.s:3323   .debug_str:0000000000000008 .LASF33
     /tmp/cciY2llU.s:3351   .debug_str:00000000000000dc .LASF34
GAS LISTING /tmp/cciY2llU.s 			page 19


     /tmp/cciY2llU.s:3431   .debug_str:000000000000034a .LASF35
     /tmp/cciY2llU.s:3475   .debug_str:0000000000000495 .LASF36
     /tmp/cciY2llU.s:3333   .debug_str:000000000000005a .LASF37
     /tmp/cciY2llU.s:3435   .debug_str:000000000000037a .LASF38
     /tmp/cciY2llU.s:3545   .debug_str:0000000000000709 .LASF39
     /tmp/cciY2llU.s:3329   .debug_str:0000000000000040 .LASF40
     /tmp/cciY2llU.s:3383   .debug_str:0000000000000201 .LASF41
     /tmp/cciY2llU.s:3495   .debug_str:0000000000000501 .LASF42
     /tmp/cciY2llU.s:3483   .debug_str:00000000000004cc .LASF43
     /tmp/cciY2llU.s:3361   .debug_str:0000000000000139 .LASF44
     /tmp/cciY2llU.s:3327   .debug_str:0000000000000036 .LASF45
     /tmp/cciY2llU.s:3433   .debug_str:0000000000000365 .LASF46
     /tmp/cciY2llU.s:3455   .debug_str:00000000000003ee .LASF47
     /tmp/cciY2llU.s:3551   .debug_str:0000000000000737 .LASF48
     /tmp/cciY2llU.s:3421   .debug_str:000000000000031c .LASF49
     /tmp/cciY2llU.s:3529   .debug_str:0000000000000682 .LASF50
     /tmp/cciY2llU.s:3429   .debug_str:000000000000033d .LASF51
     /tmp/cciY2llU.s:3535   .debug_str:00000000000006bb .LASF52
     /tmp/cciY2llU.s:3499   .debug_str:0000000000000518 .LASF113
     /tmp/cciY2llU.s:3411   .debug_str:00000000000002c0 .LASF53
     /tmp/cciY2llU.s:3379   .debug_str:00000000000001ba .LASF54
     /tmp/cciY2llU.s:3477   .debug_str:00000000000004a0 .LASF55
     /tmp/cciY2llU.s:3451   .debug_str:00000000000003d0 .LASF56
     /tmp/cciY2llU.s:3507   .debug_str:000000000000054f .LASF67
     /tmp/cciY2llU.s:3457   .debug_str:00000000000003fa .LASF69
     /tmp/cciY2llU.s:3389   .debug_str:0000000000000217 .LASF114
     /tmp/cciY2llU.s:3407   .debug_str:0000000000000291 .LASF115
     /tmp/cciY2llU.s:3425   .debug_str:0000000000000330 .LASF57
     /tmp/cciY2llU.s:3345   .debug_str:00000000000000b1 .LASF58
     /tmp/cciY2llU.s:3471   .debug_str:0000000000000463 .LASF59
     /tmp/cciY2llU.s:3427   .debug_str:0000000000000335 .LASF60
     /tmp/cciY2llU.s:3423   .debug_str:0000000000000327 .LASF61
     /tmp/cciY2llU.s:3321   .debug_str:0000000000000000 .LASF62
     /tmp/cciY2llU.s:3365   .debug_str:0000000000000162 .LASF63
     /tmp/cciY2llU.s:3437   .debug_str:0000000000000383 .LASF71
     /tmp/cciY2llU.s:3347   .debug_str:00000000000000b6 .LASF73
     /tmp/cciY2llU.s:3539   .debug_str:00000000000006e4 .LASF64
     /tmp/cciY2llU.s:3415   .debug_str:00000000000002e8 .LASF66
     /tmp/cciY2llU.s:3487   .debug_str:00000000000004de .LASF68
     /tmp/cciY2llU.s:3547   .debug_str:0000000000000723 .LASF70
     /tmp/cciY2llU.s:3469   .debug_str:000000000000045a .LASF72
     /tmp/cciY2llU.s:3393   .debug_str:000000000000022b .LASF74
     /tmp/cciY2llU.s:3341   .debug_str:0000000000000096 .LASF116
     /tmp/cciY2llU.s:3395   .debug_str:000000000000023e .LASF75
     /tmp/cciY2llU.s:3375   .debug_str:0000000000000192 .LASF117
     /tmp/cciY2llU.s:3387   .debug_str:000000000000020c .LASF76
     /tmp/cciY2llU.s:3397   .debug_str:0000000000000243 .LASF77
     /tmp/cciY2llU.s:3553   .debug_str:000000000000074e .LASF78
     /tmp/cciY2llU.s:3543   .debug_str:00000000000006fa .LASF79
     /tmp/cciY2llU.s:3485   .debug_str:00000000000004d7 .LASF80
     /tmp/cciY2llU.s:3405   .debug_str:0000000000000280 .LASF81
     /tmp/cciY2llU.s:3541   .debug_str:00000000000006f2 .LASF82
     /tmp/cciY2llU.s:3363   .debug_str:0000000000000150 .LASF83
     /tmp/cciY2llU.s:3537   .debug_str:00000000000006de .LASF84
     /tmp/cciY2llU.s:3335   .debug_str:0000000000000077 .LASF85
     /tmp/cciY2llU.s:3369   .debug_str:0000000000000180 .LASF86
     /tmp/cciY2llU.s:3439   .debug_str:0000000000000391 .LASF87
GAS LISTING /tmp/cciY2llU.s 			page 20


     /tmp/cciY2llU.s:3385   .debug_str:0000000000000206 .LASF88
     /tmp/cciY2llU.s:3357   .debug_str:000000000000010a .LASF89
     /tmp/cciY2llU.s:3339   .debug_str:000000000000008e .LASF90
     /tmp/cciY2llU.s:3331   .debug_str:0000000000000048 .LASF91
     /tmp/cciY2llU.s:3497   .debug_str:000000000000050d .LASF92
     /tmp/cciY2llU.s:3493   .debug_str:00000000000004fc .LASF93
     /tmp/cciY2llU.s:3359   .debug_str:000000000000011a .LASF95
     /tmp/cciY2llU.s:3509   .debug_str:0000000000000555 .LASF94
     /tmp/cciY2llU.s:3533   .debug_str:00000000000006a8 .LASF96
     /tmp/cciY2llU.s:515    .text:000000000000028c .LFB44
     /tmp/cciY2llU.s:568    .text:00000000000002d0 .LFE44
     /tmp/cciY2llU.s:2869   .debug_loc:0000000000000000 .LLST29
     /tmp/cciY2llU.s:3447   .debug_str:00000000000003bd .LASF97
     /tmp/cciY2llU.s:2905   .debug_loc:000000000000008b .LLST30
     /tmp/cciY2llU.s:390    .text:00000000000001f8 .LFB43
     /tmp/cciY2llU.s:509    .text:000000000000028c .LFE43
     /tmp/cciY2llU.s:2913   .debug_loc:00000000000000af .LLST22
     /tmp/cciY2llU.s:416    .text:0000000000000220 .LBB60
     /tmp/cciY2llU.s:3299   .debug_ranges:0000000000000000 .Ldebug_ranges0
     /tmp/cciY2llU.s:2931   .debug_loc:00000000000000fb .LLST23
     /tmp/cciY2llU.s:2942   .debug_loc:0000000000000131 .LLST24
     /tmp/cciY2llU.s:424    .text:000000000000022c .LVL45
     /tmp/cciY2llU.s:430    .text:000000000000022c .LBB63
     /tmp/cciY2llU.s:440    .text:0000000000000238 .LBE63
     /tmp/cciY2llU.s:2950   .debug_loc:0000000000000155 .LLST25
     /tmp/cciY2llU.s:445    .text:000000000000023c .LBB65
     /tmp/cciY2llU.s:452    .text:0000000000000240 .LBE65
     /tmp/cciY2llU.s:2959   .debug_loc:000000000000017a .LLST26
     /tmp/cciY2llU.s:2967   .debug_loc:000000000000019e .LLST27
     /tmp/cciY2llU.s:454    .text:0000000000000240 .LBB67
     /tmp/cciY2llU.s:465    .text:000000000000024c .LBE67
     /tmp/cciY2llU.s:2974   .debug_loc:00000000000001c1 .LLST28
     /tmp/cciY2llU.s:468    .text:0000000000000254 .LVL50
     /tmp/cciY2llU.s:327    .text:00000000000001a0 .LFB42
     /tmp/cciY2llU.s:384    .text:00000000000001f8 .LFE42
     /tmp/cciY2llU.s:2983   .debug_loc:00000000000001e6 .LLST21
     /tmp/cciY2llU.s:365    .text:00000000000001dc .LVL38
     /tmp/cciY2llU.s:264    .text:0000000000000148 .LFB41
     /tmp/cciY2llU.s:321    .text:00000000000001a0 .LFE41
     /tmp/cciY2llU.s:3019   .debug_loc:0000000000000271 .LLST20
     /tmp/cciY2llU.s:302    .text:0000000000000184 .LVL32
     /tmp/cciY2llU.s:174    .text:00000000000000dc .LFB40
     /tmp/cciY2llU.s:258    .text:0000000000000148 .LFE40
     /tmp/cciY2llU.s:3055   .debug_loc:00000000000002fc .LLST13
     /tmp/cciY2llU.s:3463   .debug_str:0000000000000433 .LASF98
     /tmp/cciY2llU.s:3077   .debug_loc:000000000000035b .LLST14
     /tmp/cciY2llU.s:191    .text:00000000000000f4 .LBB46
     /tmp/cciY2llU.s:3084   .debug_loc:000000000000037e .LLST15
     /tmp/cciY2llU.s:3114   .debug_loc:00000000000003e5 .LLST16
     /tmp/cciY2llU.s:3125   .debug_loc:000000000000041b .LLST17
     /tmp/cciY2llU.s:211    .text:0000000000000114 .LVL23
     /tmp/cciY2llU.s:216    .text:0000000000000114 .LBB49
     /tmp/cciY2llU.s:223    .text:0000000000000118 .LBE49
     /tmp/cciY2llU.s:3132   .debug_loc:000000000000043e .LLST18
     /tmp/cciY2llU.s:3140   .debug_loc:0000000000000462 .LLST19
     /tmp/cciY2llU.s:228    .text:0000000000000124 .LVL25
     /tmp/cciY2llU.s:73     .text:0000000000000050 .LFB39
GAS LISTING /tmp/cciY2llU.s 			page 21


     /tmp/cciY2llU.s:168    .text:00000000000000dc .LFE39
     /tmp/cciY2llU.s:3147   .debug_loc:0000000000000485 .LLST4
     /tmp/cciY2llU.s:95     .text:0000000000000078 .LBB38
     /tmp/cciY2llU.s:3169   .debug_loc:00000000000004e4 .LLST5
     /tmp/cciY2llU.s:3180   .debug_loc:000000000000051a .LLST6
     /tmp/cciY2llU.s:3201   .debug_loc:0000000000000569 .LLST7
     /tmp/cciY2llU.s:102    .text:0000000000000084 .LBB40
     /tmp/cciY2llU.s:109    .text:000000000000008c .LBE40
     /tmp/cciY2llU.s:3212   .debug_loc:000000000000059f .LLST8
     /tmp/cciY2llU.s:3220   .debug_loc:00000000000005c3 .LLST9
     /tmp/cciY2llU.s:3227   .debug_loc:00000000000005e6 .LLST10
     /tmp/cciY2llU.s:101    .text:0000000000000084 .LVL10
     /tmp/cciY2llU.s:127    .text:00000000000000a8 .LBB43
     /tmp/cciY2llU.s:136    .text:00000000000000b0 .LBE43
     /tmp/cciY2llU.s:3234   .debug_loc:0000000000000609 .LLST11
     /tmp/cciY2llU.s:3242   .debug_loc:000000000000062d .LLST12
     /tmp/cciY2llU.s:140    .text:00000000000000b8 .LVL15
     /tmp/cciY2llU.s:10     .text:0000000000000000 .LFB38
     /tmp/cciY2llU.s:67     .text:0000000000000050 .LFE38
     /tmp/cciY2llU.s:3249   .debug_loc:0000000000000650 .LLST0
     /tmp/cciY2llU.s:32     .text:0000000000000024 .LBB34
     /tmp/cciY2llU.s:54     .text:000000000000003c .LBE34
     /tmp/cciY2llU.s:3263   .debug_loc:0000000000000689 .LLST1
     /tmp/cciY2llU.s:3270   .debug_loc:00000000000006ac .LLST2
     /tmp/cciY2llU.s:41     .text:0000000000000030 .LBB36
     /tmp/cciY2llU.s:49     .text:0000000000000038 .LBE36
     /tmp/cciY2llU.s:3277   .debug_loc:00000000000006cf .LLST3
     /tmp/cciY2llU.s:31     .text:0000000000000024 .LVL2
     /tmp/cciY2llU.s:3555   .debug_str:0000000000000753 .LASF99
     /tmp/cciY2llU.s:3443   .debug_str:00000000000003ac .LASF100
     /tmp/cciY2llU.s:3449   .debug_str:00000000000003c9 .LASF101
     /tmp/cciY2llU.s:3515   .debug_str:0000000000000572 .LASF103
     /tmp/cciY2llU.s:3511   .debug_str:000000000000055a .LASF102
     /tmp/cciY2llU.s:3349   .debug_str:00000000000000cf .LASF104
     /tmp/cciY2llU.s:518    .text:000000000000028c .LVL54
     /tmp/cciY2llU.s:544    .text:00000000000002b4 .LVL56
     /tmp/cciY2llU.s:554    .text:00000000000002c0 .LVL57
     /tmp/cciY2llU.s:559    .text:00000000000002c4 .LVL58
     /tmp/cciY2llU.s:561    .text:00000000000002c8 .LVL59
     /tmp/cciY2llU.s:565    .text:00000000000002cc .LVL60
     /tmp/cciY2llU.s:537    .text:00000000000002a8 .LVL55
     /tmp/cciY2llU.s:393    .text:00000000000001f8 .LVL41
     /tmp/cciY2llU.s:412    .text:000000000000021c .LVL42
     /tmp/cciY2llU.s:504    .text:0000000000000284 .LVL53
     /tmp/cciY2llU.s:414    .text:0000000000000220 .LVL43
     /tmp/cciY2llU.s:476    .text:000000000000025c .LVL51
     /tmp/cciY2llU.s:484    .text:000000000000026c .LVL52
     /tmp/cciY2llU.s:421    .text:0000000000000224 .LVL44
     /tmp/cciY2llU.s:438    .text:0000000000000238 .LVL46
     /tmp/cciY2llU.s:444    .text:000000000000023c .LVL47
     /tmp/cciY2llU.s:450    .text:0000000000000240 .LVL48
     /tmp/cciY2llU.s:463    .text:000000000000024c .LVL49
     /tmp/cciY2llU.s:330    .text:00000000000001a0 .LVL35
     /tmp/cciY2llU.s:348    .text:00000000000001c0 .LVL36
     /tmp/cciY2llU.s:351    .text:00000000000001c4 .LVL37
     /tmp/cciY2llU.s:377    .text:00000000000001f0 .LVL39
     /tmp/cciY2llU.s:381    .text:00000000000001f4 .LVL40
GAS LISTING /tmp/cciY2llU.s 			page 22


     /tmp/cciY2llU.s:267    .text:0000000000000148 .LVL29
     /tmp/cciY2llU.s:285    .text:0000000000000168 .LVL30
     /tmp/cciY2llU.s:288    .text:000000000000016c .LVL31
     /tmp/cciY2llU.s:314    .text:0000000000000198 .LVL33
     /tmp/cciY2llU.s:318    .text:000000000000019c .LVL34
     /tmp/cciY2llU.s:177    .text:00000000000000dc .LVL18
     /tmp/cciY2llU.s:195    .text:00000000000000f8 .LVL20
     /tmp/cciY2llU.s:242    .text:0000000000000138 .LVL27
     /tmp/cciY2llU.s:238    .text:0000000000000130 .LVL26
     /tmp/cciY2llU.s:190    .text:00000000000000f4 .LVL19
     /tmp/cciY2llU.s:198    .text:00000000000000fc .LVL21
     /tmp/cciY2llU.s:250    .text:0000000000000140 .LVL28
     /tmp/cciY2llU.s:208    .text:000000000000010c .LVL22
     /tmp/cciY2llU.s:221    .text:0000000000000118 .LVL24
     /tmp/cciY2llU.s:76     .text:0000000000000050 .LVL7
     /tmp/cciY2llU.s:99     .text:000000000000007c .LVL9
     /tmp/cciY2llU.s:150    .text:00000000000000c4 .LVL16
     /tmp/cciY2llU.s:156    .text:00000000000000d0 .LVL17
     /tmp/cciY2llU.s:94     .text:0000000000000078 .LVL8
     /tmp/cciY2llU.s:119    .text:000000000000009c .LVL12
     /tmp/cciY2llU.s:107    .text:000000000000008c .LVL11
     /tmp/cciY2llU.s:126    .text:00000000000000a8 .LVL13
     /tmp/cciY2llU.s:134    .text:00000000000000b0 .LVL14
     /tmp/cciY2llU.s:14     .text:0000000000000000 .LVL0
     /tmp/cciY2llU.s:29     .text:000000000000001c .LVL1
     /tmp/cciY2llU.s:37     .text:0000000000000028 .LVL3
     /tmp/cciY2llU.s:52     .text:000000000000003c .LVL6
     /tmp/cciY2llU.s:40     .text:0000000000000030 .LVL4
     /tmp/cciY2llU.s:47     .text:0000000000000038 .LVL5
     /tmp/cciY2llU.s:574    .debug_info:0000000000000000 .Ldebug_info0
     /tmp/cciY2llU.s:121    .text:000000000000009c .LBE38
     /tmp/cciY2llU.s:159    .text:00000000000000d0 .LBB45
     /tmp/cciY2llU.s:166    .text:00000000000000dc .LBE45
     /tmp/cciY2llU.s:214    .text:0000000000000114 .LBE46
     /tmp/cciY2llU.s:245    .text:0000000000000138 .LBB51
     /tmp/cciY2llU.s:256    .text:0000000000000148 .LBE51
     /tmp/cciY2llU.s:427    .text:000000000000022c .LBE60
     /tmp/cciY2llU.s:470    .text:0000000000000254 .LBB69
     /tmp/cciY2llU.s:487    .text:000000000000026c .LBE69

UNDEFINED SYMBOLS
_Znwm
_ZN3TCB7runningE
_ZN3TCB5yieldEv
_ZdlPv
_ZN9Scheduler3putEP3TCB
