GAS LISTING /tmp/ccP7p4ob.s 			page 1


   1              		.file	"syscall_cpp.cpp"
   2              		.option pic
   3              		.option norelax
   4              		.text
   5              	.Ltext0:
   6              		.section	.text._ZN6Thread3runEv,"axG",@progbits,_ZN6Thread3runEv,comdat
   7              		.align	2
   8              		.weak	_ZN6Thread3runEv
  10              	_ZN6Thread3runEv:
  11              	.LFB24:
  12              		.file 1 "src/../h/syscall_cpp.hpp"
   1:src/../h/syscall_cpp.hpp **** 
   2:src/../h/syscall_cpp.hpp **** #ifndef SYSCALL_CPP_H
   3:src/../h/syscall_cpp.hpp **** #define SYSCALL_CPP_H
   4:src/../h/syscall_cpp.hpp **** 
   5:src/../h/syscall_cpp.hpp **** #include "syscall_c.h"
   6:src/../h/syscall_cpp.hpp **** 
   7:src/../h/syscall_cpp.hpp **** using Body=void (*)(void *);
   8:src/../h/syscall_cpp.hpp **** 
   9:src/../h/syscall_cpp.hpp **** 
  10:src/../h/syscall_cpp.hpp **** class Thread{
  11:src/../h/syscall_cpp.hpp **** public:
  12:src/../h/syscall_cpp.hpp ****     Thread(void (*body)(void*), void* arg);
  13:src/../h/syscall_cpp.hpp ****     virtual ~Thread();
  14:src/../h/syscall_cpp.hpp **** 
  15:src/../h/syscall_cpp.hpp ****     int start();
  16:src/../h/syscall_cpp.hpp **** 
  17:src/../h/syscall_cpp.hpp ****     static void dispatch();
  18:src/../h/syscall_cpp.hpp **** 
  19:src/../h/syscall_cpp.hpp **** protected:
  20:src/../h/syscall_cpp.hpp ****     static void runWrapper(void* thread);
  21:src/../h/syscall_cpp.hpp ****     Thread();
  22:src/../h/syscall_cpp.hpp ****     virtual void run(){}
  13              		.loc 1 22 18
  14              		.cfi_startproc
  15              	.LVL0:
  16 0000 130101FF 		addi	sp,sp,-16
  17              		.cfi_def_cfa_offset 16
  18 0004 23348100 		sd	s0,8(sp)
  19              		.cfi_offset 8, -8
  20 0008 13040101 		addi	s0,sp,16
  21              		.cfi_def_cfa 8, 0
  22              		.loc 1 22 24 is_stmt 0
  23 000c 03348100 		ld	s0,8(sp)
  24              		.cfi_restore 8
  25              		.cfi_def_cfa 2, 16
  26 0010 13010101 		addi	sp,sp,16
  27              		.cfi_def_cfa_offset 0
  28 0014 67800000 		jr	ra
  29              		.cfi_endproc
  30              	.LFE24:
  32              		.text
  33              		.align	2
  34              		.globl	_ZN6Thread10runWrapperEPv
  36              	_ZN6Thread10runWrapperEPv:
  37              	.LFB37:
  38              		.file 2 "src/syscall_cpp.cpp"
GAS LISTING /tmp/ccP7p4ob.s 			page 2


   1:src/syscall_cpp.cpp **** 
   2:src/syscall_cpp.cpp **** #include "../h/syscall_cpp.hpp"
   3:src/syscall_cpp.cpp **** 
   4:src/syscall_cpp.cpp **** 
   5:src/syscall_cpp.cpp **** Thread::Thread(void (*body)(void *), void *arg){
   6:src/syscall_cpp.cpp ****     body=body;
   7:src/syscall_cpp.cpp ****     arg=arg;
   8:src/syscall_cpp.cpp ****     thread_createNoStart(&myHandle,body,arg);
   9:src/syscall_cpp.cpp **** }
  10:src/syscall_cpp.cpp **** 
  11:src/syscall_cpp.cpp **** Thread::~Thread() {
  12:src/syscall_cpp.cpp ****     delete myHandle;
  13:src/syscall_cpp.cpp **** }
  14:src/syscall_cpp.cpp **** 
  15:src/syscall_cpp.cpp **** int Thread::start() {
  16:src/syscall_cpp.cpp ****     return myHandle->start();
  17:src/syscall_cpp.cpp **** }
  18:src/syscall_cpp.cpp **** 
  19:src/syscall_cpp.cpp **** void Thread::dispatch() {
  20:src/syscall_cpp.cpp ****     thread_dispatch();
  21:src/syscall_cpp.cpp **** }
  22:src/syscall_cpp.cpp **** 
  23:src/syscall_cpp.cpp **** Thread::Thread() {
  24:src/syscall_cpp.cpp ****     body=runWrapper;
  25:src/syscall_cpp.cpp ****     thread_createNoStart(&myHandle,runWrapper, this);
  26:src/syscall_cpp.cpp **** }
  27:src/syscall_cpp.cpp **** 
  28:src/syscall_cpp.cpp **** void Thread::runWrapper(void *thread) {
  39              		.loc 2 28 39 is_stmt 1
  40              		.cfi_startproc
  41              	.LVL1:
  42 0000 130101FF 		addi	sp,sp,-16
  43              		.cfi_def_cfa_offset 16
  44 0004 23341100 		sd	ra,8(sp)
  45 0008 23308100 		sd	s0,0(sp)
  46              		.cfi_offset 1, -8
  47              		.cfi_offset 8, -16
  48 000c 13040101 		addi	s0,sp,16
  49              		.cfi_def_cfa 8, 0
  29:src/syscall_cpp.cpp ****     ((Thread*)thread)->run();
  50              		.loc 2 29 5
  51              		.loc 2 29 28 is_stmt 0
  52 0010 83370500 		ld	a5,0(a0)
  53 0014 83B70701 		ld	a5,16(a5)
  54              		.loc 2 29 27
  55 0018 E7800700 		jalr	a5
  56              	.LVL2:
  30:src/syscall_cpp.cpp **** }
  57              		.loc 2 30 1
  58 001c 83308100 		ld	ra,8(sp)
  59              		.cfi_restore 1
  60 0020 03340100 		ld	s0,0(sp)
  61              		.cfi_restore 8
  62              		.cfi_def_cfa 2, 16
  63 0024 13010101 		addi	sp,sp,16
  64              		.cfi_def_cfa_offset 0
  65 0028 67800000 		jr	ra
GAS LISTING /tmp/ccP7p4ob.s 			page 3


  66              		.cfi_endproc
  67              	.LFE37:
  69              		.align	2
  70              		.globl	_ZN9SemaphoreD2Ev
  72              	_ZN9SemaphoreD2Ev:
  73              	.LFB42:
  31:src/syscall_cpp.cpp **** 
  32:src/syscall_cpp.cpp **** Semaphore::Semaphore(unsigned int init) {
  33:src/syscall_cpp.cpp ****     sem_open(&myHandle,init);
  34:src/syscall_cpp.cpp **** }
  35:src/syscall_cpp.cpp **** 
  36:src/syscall_cpp.cpp **** Semaphore::~Semaphore() {
  74              		.loc 2 36 1 is_stmt 1
  75              		.cfi_startproc
  76              	.LVL3:
  77              	.LBB6:
  78              		.loc 2 36 23 is_stmt 0
  79 002c 97070000 		lla	a5,_ZTV9Semaphore+16
  79      93870700 
  80 0034 2330F500 		sd	a5,0(a0)
  37:src/syscall_cpp.cpp ****     delete myHandle;
  81              		.loc 2 37 5 is_stmt 1
  82              		.loc 2 37 12 is_stmt 0
  83 0038 03358500 		ld	a0,8(a0)
  84              	.LVL4:
  85              		.loc 2 37 20
  86 003c 63060502 		beqz	a0,.L8
  87              	.LBE6:
  36:src/syscall_cpp.cpp ****     delete myHandle;
  88              		.loc 2 36 1 discriminator 1
  89 0040 130101FF 		addi	sp,sp,-16
  90              		.cfi_def_cfa_offset 16
  91 0044 23341100 		sd	ra,8(sp)
  92 0048 23308100 		sd	s0,0(sp)
  93              		.cfi_offset 1, -8
  94              		.cfi_offset 8, -16
  95 004c 13040101 		addi	s0,sp,16
  96              		.cfi_def_cfa 8, 0
  97              	.LBB7:
  98              		.loc 2 37 12 discriminator 1
  99 0050 97000000 		call	_ZdlPv@plt
  99      E7800000 
 100              	.LVL5:
 101              	.LBE7:
  38:src/syscall_cpp.cpp **** }
 102              		.loc 2 38 1 discriminator 1
 103 0058 83308100 		ld	ra,8(sp)
 104              		.cfi_restore 1
 105 005c 03340100 		ld	s0,0(sp)
 106              		.cfi_restore 8
 107              		.cfi_def_cfa 2, 16
 108 0060 13010101 		addi	sp,sp,16
 109              		.cfi_def_cfa_offset 0
 110 0064 67800000 		jr	ra
 111              	.L8:
 112 0068 67800000 		ret
 113              		.cfi_endproc
GAS LISTING /tmp/ccP7p4ob.s 			page 4


 114              	.LFE42:
 116              		.globl	_ZN9SemaphoreD1Ev
 117              		.set	_ZN9SemaphoreD1Ev,_ZN9SemaphoreD2Ev
 118              		.align	2
 119              		.globl	_ZN9SemaphoreD0Ev
 121              	_ZN9SemaphoreD0Ev:
 122              	.LFB44:
  36:src/syscall_cpp.cpp ****     delete myHandle;
 123              		.loc 2 36 1 is_stmt 1
 124              		.cfi_startproc
 125              	.LVL6:
 126 006c 130101FE 		addi	sp,sp,-32
 127              		.cfi_def_cfa_offset 32
 128 0070 233C1100 		sd	ra,24(sp)
 129 0074 23388100 		sd	s0,16(sp)
 130 0078 23349100 		sd	s1,8(sp)
 131              		.cfi_offset 1, -8
 132              		.cfi_offset 8, -16
 133              		.cfi_offset 9, -24
 134 007c 13040102 		addi	s0,sp,32
 135              		.cfi_def_cfa 8, 0
 136 0080 93040500 		mv	s1,a0
 137              		.loc 2 38 1 is_stmt 0
 138 0084 97000000 		call	_ZN9SemaphoreD1Ev
 138      E7800000 
 139              	.LVL7:
 140 008c 13850400 		mv	a0,s1
 141 0090 97000000 		call	_ZdlPv@plt
 141      E7800000 
 142              	.LVL8:
 143 0098 83308101 		ld	ra,24(sp)
 144              		.cfi_restore 1
 145 009c 03340101 		ld	s0,16(sp)
 146              		.cfi_restore 8
 147              		.cfi_def_cfa 2, 32
 148 00a0 83348100 		ld	s1,8(sp)
 149              		.cfi_restore 9
 150              	.LVL9:
 151 00a4 13010102 		addi	sp,sp,32
 152              		.cfi_def_cfa_offset 0
 153 00a8 67800000 		jr	ra
 154              		.cfi_endproc
 155              	.LFE44:
 157              		.align	2
 158              		.globl	_ZN6ThreadD2Ev
 160              	_ZN6ThreadD2Ev:
 161              	.LFB29:
  11:src/syscall_cpp.cpp ****     delete myHandle;
 162              		.loc 2 11 1 is_stmt 1
 163              		.cfi_startproc
 164              	.LVL10:
 165 00ac 130101FE 		addi	sp,sp,-32
 166              		.cfi_def_cfa_offset 32
 167 00b0 233C1100 		sd	ra,24(sp)
 168 00b4 23388100 		sd	s0,16(sp)
 169 00b8 23349100 		sd	s1,8(sp)
 170              		.cfi_offset 1, -8
GAS LISTING /tmp/ccP7p4ob.s 			page 5


 171              		.cfi_offset 8, -16
 172              		.cfi_offset 9, -24
 173 00bc 13040102 		addi	s0,sp,32
 174              		.cfi_def_cfa 8, 0
 175              	.LBB8:
  11:src/syscall_cpp.cpp ****     delete myHandle;
 176              		.loc 2 11 17 is_stmt 0
 177 00c0 97070000 		lla	a5,_ZTV6Thread+16
 177      93870700 
 178 00c8 2330F500 		sd	a5,0(a0)
  12:src/syscall_cpp.cpp **** }
 179              		.loc 2 12 5 is_stmt 1
  12:src/syscall_cpp.cpp **** }
 180              		.loc 2 12 12 is_stmt 0
 181 00cc 83348500 		ld	s1,8(a0)
  12:src/syscall_cpp.cpp **** }
 182              		.loc 2 12 20
 183 00d0 63800402 		beqz	s1,.L13
 184              	.LVL11:
 185              	.LBB9:
 186              	.LBB10:
 187              		.file 3 "src/../h/tcb.hpp"
   1:src/../h/tcb.hpp **** 
   2:src/../h/tcb.hpp **** #ifndef TCB_H
   3:src/../h/tcb.hpp **** #define TCB_H
   4:src/../h/tcb.hpp **** 
   5:src/../h/tcb.hpp **** #include "../lib/hw.h"
   6:src/../h/tcb.hpp **** #include "scheduler.hpp"
   7:src/../h/tcb.hpp **** 
   8:src/../h/tcb.hpp **** 
   9:src/../h/tcb.hpp **** class TCB{
  10:src/../h/tcb.hpp **** public:
  11:src/../h/tcb.hpp **** 
  12:src/../h/tcb.hpp ****     ~TCB(){ delete[] stack;}
 188              		.loc 3 12 13 is_stmt 1
 189              		.loc 3 12 22 is_stmt 0
 190 00d4 03B50401 		ld	a0,16(s1)
 191              	.LVL12:
 192              		.loc 3 12 27
 193 00d8 63060500 		beqz	a0,.L15
 194              		.loc 3 12 22
 195 00dc 97000000 		call	_ZdaPv@plt
 195      E7800000 
 196              	.LVL13:
 197              	.L15:
 198              	.LBE10:
 199              	.LBE9:
  12:src/syscall_cpp.cpp **** }
 200              		.loc 2 12 12
 201 00e4 13850400 		mv	a0,s1
 202 00e8 97000000 		call	_ZdlPv@plt
 202      E7800000 
 203              	.LVL14:
 204              	.L13:
 205              	.LBE8:
  13:src/syscall_cpp.cpp **** 
 206              		.loc 2 13 1
GAS LISTING /tmp/ccP7p4ob.s 			page 6


 207 00f0 83308101 		ld	ra,24(sp)
 208              		.cfi_restore 1
 209 00f4 03340101 		ld	s0,16(sp)
 210              		.cfi_restore 8
 211              		.cfi_def_cfa 2, 32
 212 00f8 83348100 		ld	s1,8(sp)
 213              		.cfi_restore 9
 214 00fc 13010102 		addi	sp,sp,32
 215              		.cfi_def_cfa_offset 0
 216 0100 67800000 		jr	ra
 217              		.cfi_endproc
 218              	.LFE29:
 220              		.globl	_ZN6ThreadD1Ev
 221              		.set	_ZN6ThreadD1Ev,_ZN6ThreadD2Ev
 222              		.align	2
 223              		.globl	_ZN6ThreadD0Ev
 225              	_ZN6ThreadD0Ev:
 226              	.LFB31:
  11:src/syscall_cpp.cpp ****     delete myHandle;
 227              		.loc 2 11 1 is_stmt 1
 228              		.cfi_startproc
 229              	.LVL15:
 230 0104 130101FE 		addi	sp,sp,-32
 231              		.cfi_def_cfa_offset 32
 232 0108 233C1100 		sd	ra,24(sp)
 233 010c 23388100 		sd	s0,16(sp)
 234 0110 23349100 		sd	s1,8(sp)
 235              		.cfi_offset 1, -8
 236              		.cfi_offset 8, -16
 237              		.cfi_offset 9, -24
 238 0114 13040102 		addi	s0,sp,32
 239              		.cfi_def_cfa 8, 0
 240 0118 93040500 		mv	s1,a0
  13:src/syscall_cpp.cpp **** 
 241              		.loc 2 13 1 is_stmt 0
 242 011c 97000000 		call	_ZN6ThreadD1Ev
 242      E7800000 
 243              	.LVL16:
 244 0124 13850400 		mv	a0,s1
 245 0128 97000000 		call	_ZdlPv@plt
 245      E7800000 
 246              	.LVL17:
 247 0130 83308101 		ld	ra,24(sp)
 248              		.cfi_restore 1
 249 0134 03340101 		ld	s0,16(sp)
 250              		.cfi_restore 8
 251              		.cfi_def_cfa 2, 32
 252 0138 83348100 		ld	s1,8(sp)
 253              		.cfi_restore 9
 254              	.LVL18:
 255 013c 13010102 		addi	sp,sp,32
 256              		.cfi_def_cfa_offset 0
 257 0140 67800000 		jr	ra
 258              		.cfi_endproc
 259              	.LFE31:
 261              		.align	2
 262              		.globl	_ZN6ThreadC2EPFvPvES0_
GAS LISTING /tmp/ccP7p4ob.s 			page 7


 264              	_ZN6ThreadC2EPFvPvES0_:
 265              	.LFB26:
   5:src/syscall_cpp.cpp ****     body=body;
 266              		.loc 2 5 1 is_stmt 1
 267              		.cfi_startproc
 268              	.LVL19:
 269 0144 130101FF 		addi	sp,sp,-16
 270              		.cfi_def_cfa_offset 16
 271 0148 23341100 		sd	ra,8(sp)
 272 014c 23308100 		sd	s0,0(sp)
 273              		.cfi_offset 1, -8
 274              		.cfi_offset 8, -16
 275 0150 13040101 		addi	s0,sp,16
 276              		.cfi_def_cfa 8, 0
 277              	.LBB11:
   5:src/syscall_cpp.cpp ****     body=body;
 278              		.loc 2 5 47 is_stmt 0
 279 0154 97070000 		lla	a5,_ZTV6Thread+16
 279      93870700 
 280 015c 2330F500 		sd	a5,0(a0)
   6:src/syscall_cpp.cpp ****     arg=arg;
 281              		.loc 2 6 5 is_stmt 1
   7:src/syscall_cpp.cpp ****     thread_createNoStart(&myHandle,body,arg);
 282              		.loc 2 7 5
   8:src/syscall_cpp.cpp **** }
 283              		.loc 2 8 5
   8:src/syscall_cpp.cpp **** }
 284              		.loc 2 8 25 is_stmt 0
 285 0160 13058500 		addi	a0,a0,8
 286              	.LVL20:
 287 0164 97000000 		call	_Z20thread_createNoStartPP3TCBPFvPvES2_@plt
 287      E7800000 
 288              	.LVL21:
 289              	.LBE11:
   9:src/syscall_cpp.cpp **** 
 290              		.loc 2 9 1
 291 016c 83308100 		ld	ra,8(sp)
 292              		.cfi_restore 1
 293 0170 03340100 		ld	s0,0(sp)
 294              		.cfi_restore 8
 295              		.cfi_def_cfa 2, 16
 296 0174 13010101 		addi	sp,sp,16
 297              		.cfi_def_cfa_offset 0
 298 0178 67800000 		jr	ra
 299              		.cfi_endproc
 300              	.LFE26:
 302              		.globl	_ZN6ThreadC1EPFvPvES0_
 303              		.set	_ZN6ThreadC1EPFvPvES0_,_ZN6ThreadC2EPFvPvES0_
 304              		.align	2
 305              		.globl	_ZN6Thread5startEv
 307              	_ZN6Thread5startEv:
 308              	.LFB32:
  15:src/syscall_cpp.cpp ****     return myHandle->start();
 309              		.loc 2 15 21 is_stmt 1
 310              		.cfi_startproc
 311              	.LVL22:
 312 017c 130101FF 		addi	sp,sp,-16
GAS LISTING /tmp/ccP7p4ob.s 			page 8


 313              		.cfi_def_cfa_offset 16
 314 0180 23341100 		sd	ra,8(sp)
 315 0184 23308100 		sd	s0,0(sp)
 316              		.cfi_offset 1, -8
 317              		.cfi_offset 8, -16
 318 0188 13040101 		addi	s0,sp,16
 319              		.cfi_def_cfa 8, 0
  16:src/syscall_cpp.cpp **** }
 320              		.loc 2 16 5
  16:src/syscall_cpp.cpp **** }
 321              		.loc 2 16 27 is_stmt 0
 322 018c 03358500 		ld	a0,8(a0)
 323              	.LVL23:
 324 0190 97000000 		call	_ZN3TCB5startEv@plt
 324      E7800000 
 325              	.LVL24:
  17:src/syscall_cpp.cpp **** 
 326              		.loc 2 17 1
 327 0198 83308100 		ld	ra,8(sp)
 328              		.cfi_restore 1
 329 019c 03340100 		ld	s0,0(sp)
 330              		.cfi_restore 8
 331              		.cfi_def_cfa 2, 16
 332 01a0 13010101 		addi	sp,sp,16
 333              		.cfi_def_cfa_offset 0
 334 01a4 67800000 		jr	ra
 335              		.cfi_endproc
 336              	.LFE32:
 338              		.align	2
 339              		.globl	_ZN6Thread8dispatchEv
 341              	_ZN6Thread8dispatchEv:
 342              	.LFB33:
  19:src/syscall_cpp.cpp ****     thread_dispatch();
 343              		.loc 2 19 25 is_stmt 1
 344              		.cfi_startproc
 345 01a8 130101FF 		addi	sp,sp,-16
 346              		.cfi_def_cfa_offset 16
 347 01ac 23341100 		sd	ra,8(sp)
 348 01b0 23308100 		sd	s0,0(sp)
 349              		.cfi_offset 1, -8
 350              		.cfi_offset 8, -16
 351 01b4 13040101 		addi	s0,sp,16
 352              		.cfi_def_cfa 8, 0
  20:src/syscall_cpp.cpp **** }
 353              		.loc 2 20 5
  20:src/syscall_cpp.cpp **** }
 354              		.loc 2 20 20 is_stmt 0
 355 01b8 97000000 		call	_Z15thread_dispatchv@plt
 355      E7800000 
 356              	.LVL25:
  21:src/syscall_cpp.cpp **** 
 357              		.loc 2 21 1
 358 01c0 83308100 		ld	ra,8(sp)
 359              		.cfi_restore 1
 360 01c4 03340100 		ld	s0,0(sp)
 361              		.cfi_restore 8
 362              		.cfi_def_cfa 2, 16
GAS LISTING /tmp/ccP7p4ob.s 			page 9


 363 01c8 13010101 		addi	sp,sp,16
 364              		.cfi_def_cfa_offset 0
 365 01cc 67800000 		jr	ra
 366              		.cfi_endproc
 367              	.LFE33:
 369              		.align	2
 370              		.globl	_ZN6ThreadC2Ev
 372              	_ZN6ThreadC2Ev:
 373              	.LFB35:
  23:src/syscall_cpp.cpp ****     body=runWrapper;
 374              		.loc 2 23 1 is_stmt 1
 375              		.cfi_startproc
 376              	.LVL26:
 377 01d0 130101FF 		addi	sp,sp,-16
 378              		.cfi_def_cfa_offset 16
 379 01d4 23341100 		sd	ra,8(sp)
 380 01d8 23308100 		sd	s0,0(sp)
 381              		.cfi_offset 1, -8
 382              		.cfi_offset 8, -16
 383 01dc 13040101 		addi	s0,sp,16
 384              		.cfi_def_cfa 8, 0
 385              	.LBB12:
  23:src/syscall_cpp.cpp ****     body=runWrapper;
 386              		.loc 2 23 16 is_stmt 0
 387 01e0 97070000 		lla	a5,_ZTV6Thread+16
 387      93870700 
 388 01e8 2330F500 		sd	a5,0(a0)
  24:src/syscall_cpp.cpp ****     thread_createNoStart(&myHandle,runWrapper, this);
 389              		.loc 2 24 5 is_stmt 1
  24:src/syscall_cpp.cpp ****     thread_createNoStart(&myHandle,runWrapper, this);
 390              		.loc 2 24 9 is_stmt 0
 391 01ec 97050000 		lla	a1,_ZN6Thread10runWrapperEPv
 391      93850500 
 392 01f4 2338B500 		sd	a1,16(a0)
  25:src/syscall_cpp.cpp **** }
 393              		.loc 2 25 5 is_stmt 1
  25:src/syscall_cpp.cpp **** }
 394              		.loc 2 25 25 is_stmt 0
 395 01f8 13060500 		mv	a2,a0
 396 01fc 13058500 		addi	a0,a0,8
 397              	.LVL27:
 398 0200 97000000 		call	_Z20thread_createNoStartPP3TCBPFvPvES2_@plt
 398      E7800000 
 399              	.LVL28:
 400              	.LBE12:
  26:src/syscall_cpp.cpp **** 
 401              		.loc 2 26 1
 402 0208 83308100 		ld	ra,8(sp)
 403              		.cfi_restore 1
 404 020c 03340100 		ld	s0,0(sp)
 405              		.cfi_restore 8
 406              		.cfi_def_cfa 2, 16
 407 0210 13010101 		addi	sp,sp,16
 408              		.cfi_def_cfa_offset 0
 409 0214 67800000 		jr	ra
 410              		.cfi_endproc
 411              	.LFE35:
GAS LISTING /tmp/ccP7p4ob.s 			page 10


 413              		.globl	_ZN6ThreadC1Ev
 414              		.set	_ZN6ThreadC1Ev,_ZN6ThreadC2Ev
 415              		.align	2
 416              		.globl	_ZN9SemaphoreC2Ej
 418              	_ZN9SemaphoreC2Ej:
 419              	.LFB39:
  32:src/syscall_cpp.cpp ****     sem_open(&myHandle,init);
 420              		.loc 2 32 1 is_stmt 1
 421              		.cfi_startproc
 422              	.LVL29:
 423 0218 130101FF 		addi	sp,sp,-16
 424              		.cfi_def_cfa_offset 16
 425 021c 23341100 		sd	ra,8(sp)
 426 0220 23308100 		sd	s0,0(sp)
 427              		.cfi_offset 1, -8
 428              		.cfi_offset 8, -16
 429 0224 13040101 		addi	s0,sp,16
 430              		.cfi_def_cfa 8, 0
 431              	.LBB13:
  32:src/syscall_cpp.cpp ****     sem_open(&myHandle,init);
 432              		.loc 2 32 39 is_stmt 0
 433 0228 97070000 		lla	a5,_ZTV9Semaphore+16
 433      93870700 
 434 0230 2330F500 		sd	a5,0(a0)
  33:src/syscall_cpp.cpp **** }
 435              		.loc 2 33 5 is_stmt 1
  33:src/syscall_cpp.cpp **** }
 436              		.loc 2 33 13 is_stmt 0
 437 0234 13058500 		addi	a0,a0,8
 438              	.LVL30:
 439 0238 97000000 		call	_Z8sem_openPP3Semj@plt
 439      E7800000 
 440              	.LVL31:
 441              	.LBE13:
  34:src/syscall_cpp.cpp **** 
 442              		.loc 2 34 1
 443 0240 83308100 		ld	ra,8(sp)
 444              		.cfi_restore 1
 445 0244 03340100 		ld	s0,0(sp)
 446              		.cfi_restore 8
 447              		.cfi_def_cfa 2, 16
 448 0248 13010101 		addi	sp,sp,16
 449              		.cfi_def_cfa_offset 0
 450 024c 67800000 		jr	ra
 451              		.cfi_endproc
 452              	.LFE39:
 454              		.globl	_ZN9SemaphoreC1Ej
 455              		.set	_ZN9SemaphoreC1Ej,_ZN9SemaphoreC2Ej
 456              		.align	2
 457              		.globl	_ZN9Semaphore4waitEv
 459              	_ZN9Semaphore4waitEv:
 460              	.LFB45:
  39:src/syscall_cpp.cpp **** 
  40:src/syscall_cpp.cpp **** int Semaphore::wait() {
 461              		.loc 2 40 23 is_stmt 1
 462              		.cfi_startproc
 463              	.LVL32:
GAS LISTING /tmp/ccP7p4ob.s 			page 11


 464 0250 130101FF 		addi	sp,sp,-16
 465              		.cfi_def_cfa_offset 16
 466 0254 23341100 		sd	ra,8(sp)
 467 0258 23308100 		sd	s0,0(sp)
 468              		.cfi_offset 1, -8
 469              		.cfi_offset 8, -16
 470 025c 13040101 		addi	s0,sp,16
 471              		.cfi_def_cfa 8, 0
  41:src/syscall_cpp.cpp ****     return sem_wait(myHandle);
 472              		.loc 2 41 5
 473              		.loc 2 41 20 is_stmt 0
 474 0260 03358500 		ld	a0,8(a0)
 475              	.LVL33:
 476 0264 97000000 		call	_Z8sem_waitP3Sem@plt
 476      E7800000 
 477              	.LVL34:
  42:src/syscall_cpp.cpp **** }
 478              		.loc 2 42 1
 479 026c 83308100 		ld	ra,8(sp)
 480              		.cfi_restore 1
 481 0270 03340100 		ld	s0,0(sp)
 482              		.cfi_restore 8
 483              		.cfi_def_cfa 2, 16
 484 0274 13010101 		addi	sp,sp,16
 485              		.cfi_def_cfa_offset 0
 486 0278 67800000 		jr	ra
 487              		.cfi_endproc
 488              	.LFE45:
 490              		.align	2
 491              		.globl	_ZN9Semaphore6signalEv
 493              	_ZN9Semaphore6signalEv:
 494              	.LFB46:
  43:src/syscall_cpp.cpp **** 
  44:src/syscall_cpp.cpp **** int Semaphore::signal() {
 495              		.loc 2 44 25 is_stmt 1
 496              		.cfi_startproc
 497              	.LVL35:
 498 027c 130101FF 		addi	sp,sp,-16
 499              		.cfi_def_cfa_offset 16
 500 0280 23341100 		sd	ra,8(sp)
 501 0284 23308100 		sd	s0,0(sp)
 502              		.cfi_offset 1, -8
 503              		.cfi_offset 8, -16
 504 0288 13040101 		addi	s0,sp,16
 505              		.cfi_def_cfa 8, 0
  45:src/syscall_cpp.cpp ****     return sem_signal(myHandle);
 506              		.loc 2 45 5
 507              		.loc 2 45 22 is_stmt 0
 508 028c 03358500 		ld	a0,8(a0)
 509              	.LVL36:
 510 0290 97000000 		call	_Z10sem_signalP3Sem@plt
 510      E7800000 
 511              	.LVL37:
  46:src/syscall_cpp.cpp **** }
 512              		.loc 2 46 1
 513 0298 83308100 		ld	ra,8(sp)
 514              		.cfi_restore 1
GAS LISTING /tmp/ccP7p4ob.s 			page 12


 515 029c 03340100 		ld	s0,0(sp)
 516              		.cfi_restore 8
 517              		.cfi_def_cfa 2, 16
 518 02a0 13010101 		addi	sp,sp,16
 519              		.cfi_def_cfa_offset 0
 520 02a4 67800000 		jr	ra
 521              		.cfi_endproc
 522              	.LFE46:
 524              		.align	2
 525              		.globl	_ZN9Semaphore7tryWaitEv
 527              	_ZN9Semaphore7tryWaitEv:
 528              	.LFB47:
  47:src/syscall_cpp.cpp **** 
  48:src/syscall_cpp.cpp **** int Semaphore::tryWait() {
 529              		.loc 2 48 26 is_stmt 1
 530              		.cfi_startproc
 531              	.LVL38:
 532 02a8 130101FF 		addi	sp,sp,-16
 533              		.cfi_def_cfa_offset 16
 534 02ac 23341100 		sd	ra,8(sp)
 535 02b0 23308100 		sd	s0,0(sp)
 536              		.cfi_offset 1, -8
 537              		.cfi_offset 8, -16
 538 02b4 13040101 		addi	s0,sp,16
 539              		.cfi_def_cfa 8, 0
  49:src/syscall_cpp.cpp ****     return sem_trywait(myHandle);
 540              		.loc 2 49 5
 541              		.loc 2 49 23 is_stmt 0
 542 02b8 03358500 		ld	a0,8(a0)
 543              	.LVL39:
 544 02bc 97000000 		call	_Z11sem_trywaitP3Sem@plt
 544      E7800000 
 545              	.LVL40:
  50:src/syscall_cpp.cpp **** }
 546              		.loc 2 50 1
 547 02c4 83308100 		ld	ra,8(sp)
 548              		.cfi_restore 1
 549 02c8 03340100 		ld	s0,0(sp)
 550              		.cfi_restore 8
 551              		.cfi_def_cfa 2, 16
 552 02cc 13010101 		addi	sp,sp,16
 553              		.cfi_def_cfa_offset 0
 554 02d0 67800000 		jr	ra
 555              		.cfi_endproc
 556              	.LFE47:
 558              		.align	2
 559              		.globl	_ZN7Console4getcEv
 561              	_ZN7Console4getcEv:
 562              	.LFB48:
  51:src/syscall_cpp.cpp **** 
  52:src/syscall_cpp.cpp **** 
  53:src/syscall_cpp.cpp **** char Console::getc() {
 563              		.loc 2 53 22 is_stmt 1
 564              		.cfi_startproc
 565 02d4 130101FF 		addi	sp,sp,-16
 566              		.cfi_def_cfa_offset 16
 567 02d8 23341100 		sd	ra,8(sp)
GAS LISTING /tmp/ccP7p4ob.s 			page 13


 568 02dc 23308100 		sd	s0,0(sp)
 569              		.cfi_offset 1, -8
 570              		.cfi_offset 8, -16
 571 02e0 13040101 		addi	s0,sp,16
 572              		.cfi_def_cfa 8, 0
  54:src/syscall_cpp.cpp ****     return ::getc();
 573              		.loc 2 54 5
 574              		.loc 2 54 18 is_stmt 0
 575 02e4 97000000 		call	_Z4getcv@plt
 575      E7800000 
 576              	.LVL41:
  55:src/syscall_cpp.cpp **** }
 577              		.loc 2 55 1
 578 02ec 83308100 		ld	ra,8(sp)
 579              		.cfi_restore 1
 580 02f0 03340100 		ld	s0,0(sp)
 581              		.cfi_restore 8
 582              		.cfi_def_cfa 2, 16
 583 02f4 13010101 		addi	sp,sp,16
 584              		.cfi_def_cfa_offset 0
 585 02f8 67800000 		jr	ra
 586              		.cfi_endproc
 587              	.LFE48:
 589              		.align	2
 590              		.globl	_ZN7Console4putcEc
 592              	_ZN7Console4putcEc:
 593              	.LFB49:
  56:src/syscall_cpp.cpp **** 
  57:src/syscall_cpp.cpp **** void Console::putc(char c) {
 594              		.loc 2 57 28 is_stmt 1
 595              		.cfi_startproc
 596              	.LVL42:
 597 02fc 130101FF 		addi	sp,sp,-16
 598              		.cfi_def_cfa_offset 16
 599 0300 23341100 		sd	ra,8(sp)
 600 0304 23308100 		sd	s0,0(sp)
 601              		.cfi_offset 1, -8
 602              		.cfi_offset 8, -16
 603 0308 13040101 		addi	s0,sp,16
 604              		.cfi_def_cfa 8, 0
  58:src/syscall_cpp.cpp ****     ::putc(c);
 605              		.loc 2 58 5
 606              		.loc 2 58 11 is_stmt 0
 607 030c 97000000 		call	_Z4putcc@plt
 607      E7800000 
 608              	.LVL43:
  59:src/syscall_cpp.cpp **** }...
 609              		.loc 2 59 1
 610 0314 83308100 		ld	ra,8(sp)
 611              		.cfi_restore 1
 612 0318 03340100 		ld	s0,0(sp)
 613              		.cfi_restore 8
 614              		.cfi_def_cfa 2, 16
 615 031c 13010101 		addi	sp,sp,16
 616              		.cfi_def_cfa_offset 0
 617 0320 67800000 		jr	ra
 618              		.cfi_endproc
GAS LISTING /tmp/ccP7p4ob.s 			page 14


 619              	.LFE49:
 621              		.weak	_ZTV6Thread
 622              		.section	.data.rel.ro.local._ZTV6Thread,"awG",@progbits,_ZTV6Thread,comdat
 623              		.align	3
 626              	_ZTV6Thread:
 627 0000 00000000 		.dword	0
 627      00000000 
 628 0008 00000000 		.dword	0
 628      00000000 
 629 0010 00000000 		.dword	_ZN6ThreadD1Ev
 629      00000000 
 630 0018 00000000 		.dword	_ZN6ThreadD0Ev
 630      00000000 
 631 0020 00000000 		.dword	_ZN6Thread3runEv
 631      00000000 
 632              		.weak	_ZTV9Semaphore
 633              		.section	.data.rel.ro.local._ZTV9Semaphore,"awG",@progbits,_ZTV9Semaphore,comdat
 634              		.align	3
 637              	_ZTV9Semaphore:
 638 0000 00000000 		.dword	0
 638      00000000 
 639 0008 00000000 		.dword	0
 639      00000000 
 640 0010 00000000 		.dword	_ZN9SemaphoreD1Ev
 640      00000000 
 641 0018 00000000 		.dword	_ZN9SemaphoreD0Ev
 641      00000000 
 642              		.text
 643              	.Letext0:
 644              		.file 4 "src/../h/../lib/hw.h"
 645              		.file 5 "src/../h/list.hpp"
 646              		.file 6 "src/../h/sem.hpp"
 647              		.file 7 "src/../h/syscall_c.h"
GAS LISTING /tmp/ccP7p4ob.s 			page 15

