GAS LISTING /tmp/cc1MggNY.s 			page 1


   1              		.file	"tcb.cpp"
   2              		.option pic
   3              		.option norelax
   4              		.text
   5              	.Ltext0:
   6              		.align	2
   7              		.globl	_ZN3TCB12createThreadEPFvPvES0_S0_
   9              	_ZN3TCB12createThreadEPFvPvES0_S0_:
  10              	.LFB34:
  11              		.file 1 "src/tcb.cpp"
   1:src/tcb.cpp   **** 
   2:src/tcb.cpp   **** #include "../h/tcb.hpp"
   3:src/tcb.cpp   **** #include "../h/riscv.hpp"
   4:src/tcb.cpp   **** 
   5:src/tcb.cpp   **** 
   6:src/tcb.cpp   **** 
   7:src/tcb.cpp   **** TCB *TCB::running= nullptr;
   8:src/tcb.cpp   **** 
   9:src/tcb.cpp   **** TCB *TCB::createThread(TCB::Body body, void *args, void* stack_space) {
  12              		.loc 1 9 71
  13              		.cfi_startproc
  14              		.cfi_personality 0x9b,DW.ref.__gxx_personality_v0
  15              		.cfi_lsda 0x1b,.LLSDA34
  16              	.LVL0:
  17 0000 130101FD 		addi	sp,sp,-48
  18              		.cfi_def_cfa_offset 48
  19 0004 23341102 		sd	ra,40(sp)
  20 0008 23308102 		sd	s0,32(sp)
  21 000c 233C9100 		sd	s1,24(sp)
  22 0010 23382101 		sd	s2,16(sp)
  23 0014 23343101 		sd	s3,8(sp)
  24 0018 23304101 		sd	s4,0(sp)
  25              		.cfi_offset 1, -8
  26              		.cfi_offset 8, -16
  27              		.cfi_offset 9, -24
  28              		.cfi_offset 18, -32
  29              		.cfi_offset 19, -40
  30              		.cfi_offset 20, -48
  31 001c 13040103 		addi	s0,sp,48
  32              		.cfi_def_cfa 8, 0
  33 0020 93090500 		mv	s3,a0
  34 0024 138A0500 		mv	s4,a1
  35 0028 13090600 		mv	s2,a2
  10:src/tcb.cpp   ****     return new TCB(body,args,stack_space,true);
  36              		.loc 1 10 5
  37              		.loc 1 10 46 is_stmt 0
  38 002c 13050003 		li	a0,48
  39              	.LVL1:
  40              	.LEHB0:
  41 0030 97000000 		call	_Znwm@plt
  41      E7800000 
  42              	.LVL2:
  43              	.LEHE0:
  44 0038 93040500 		mv	s1,a0
  45              	.LVL3:
  46              	.LBB20:
  47              	.LBB21:
GAS LISTING /tmp/cc1MggNY.s 			page 2


  48              		.file 2 "src/../h/tcb.hpp"
   1:src/../h/tcb.hpp **** 
   2:src/../h/tcb.hpp **** #ifndef OS_NOVI_PROJEKAT_17_7_2024_TCB_HPP
   3:src/../h/tcb.hpp **** #define OS_NOVI_PROJEKAT_17_7_2024_TCB_HPP
   4:src/../h/tcb.hpp **** 
   5:src/../h/tcb.hpp **** #include "../lib/hw.h"
   6:src/../h/tcb.hpp **** #include "scheduler.hpp"
   7:src/../h/tcb.hpp **** 
   8:src/../h/tcb.hpp **** 
   9:src/../h/tcb.hpp **** class TCB{
  10:src/../h/tcb.hpp **** public:
  11:src/../h/tcb.hpp **** 
  12:src/../h/tcb.hpp ****     ~TCB(){ delete[] stack;}
  13:src/../h/tcb.hpp **** 
  14:src/../h/tcb.hpp ****     bool isFinished() const{ return finished;}
  15:src/../h/tcb.hpp ****     bool isBlocked() const { return blocked;}
  16:src/../h/tcb.hpp **** 
  17:src/../h/tcb.hpp ****     void setFinished(bool value){ finished=value;}
  18:src/../h/tcb.hpp ****     void setBlocked (bool value){ blocked=value;}
  19:src/../h/tcb.hpp **** 
  20:src/../h/tcb.hpp ****     using Body=void (*)(void *);
  21:src/../h/tcb.hpp **** 
  22:src/../h/tcb.hpp ****     static TCB* createThread(Body body,void* args,void* stack_space);
  23:src/../h/tcb.hpp **** 
  24:src/../h/tcb.hpp ****     static TCB* createThreadNoStart(Body body,void* args,void* stack_space);
  25:src/../h/tcb.hpp **** 
  26:src/../h/tcb.hpp **** 
  27:src/../h/tcb.hpp ****     int start();
  28:src/../h/tcb.hpp ****     static void yield();
  29:src/../h/tcb.hpp **** 
  30:src/../h/tcb.hpp ****     static TCB *running;
  31:src/../h/tcb.hpp **** 
  32:src/../h/tcb.hpp **** private:
  33:src/../h/tcb.hpp **** 
  34:src/../h/tcb.hpp ****     TCB(Body body, void *args,void *stack_space,bool startIt) :
  35:src/../h/tcb.hpp ****             body(body),
  36:src/../h/tcb.hpp ****             args(args),
  37:src/../h/tcb.hpp ****             stack(body != nullptr ? (uint64*)stack_space : nullptr),
  38:src/../h/tcb.hpp ****             context({(uint64) &threadWrapper,
  39:src/../h/tcb.hpp ****                      stack != nullptr ? (uint64) &stack[STACK_SIZE] : 0
  40:src/../h/tcb.hpp ****                     }),
  41:src/../h/tcb.hpp ****             finished(false),
  42:src/../h/tcb.hpp ****             blocked(false),
  43:src/../h/tcb.hpp ****             startIt(startIt)
  49              		.loc 2 43 28
  50 003c 23303501 		sd	s3,0(a0)
  51 0040 23344501 		sd	s4,8(a0)
  37:src/../h/tcb.hpp ****             context({(uint64) &threadWrapper,
  52              		.loc 2 37 35
  53 0044 63840904 		beqz	s3,.L10
  54              	.LVL4:
  55              	.L2:
  56              		.loc 2 43 28
  57 0048 23B82401 		sd	s2,16(s1)
  58 004c 97070000 		lla	a5,_ZN3TCB13threadWrapperEv
  58      93870700 
  59 0054 23BCF400 		sd	a5,24(s1)
GAS LISTING /tmp/cc1MggNY.s 			page 3


  39:src/../h/tcb.hpp ****                     }),
  60              		.loc 2 39 39
  61 0058 630E0902 		beqz	s2,.L7
  39:src/../h/tcb.hpp ****                     }),
  62              		.loc 2 39 50
  63 005c 37860000 		li	a2,32768
  64 0060 3309C900 		add	s2,s2,a2
  65              	.L3:
  66              		.loc 2 43 28
  67 0064 23B02403 		sd	s2,32(s1)
  68 0068 23840402 		sb	zero,40(s1)
  69 006c A3840402 		sb	zero,41(s1)
  70 0070 93071000 		li	a5,1
  71 0074 2385F402 		sb	a5,42(s1)
  44:src/../h/tcb.hpp ****     {
  45:src/../h/tcb.hpp ****         if (body != nullptr && startIt==true) { Scheduler::put(this); }
  72              		.loc 2 45 9 is_stmt 1
  73 0078 63800904 		beqz	s3,.L1
  74              		.loc 2 45 49
  75              		.loc 2 45 63 is_stmt 0
  76 007c 13850400 		mv	a0,s1
  77              	.LEHB1:
  78 0080 97000000 		call	_ZN9Scheduler3putEP3TCB@plt
  78      E7800000 
  79              	.LVL5:
  80              	.LEHE1:
  81 0088 6F000003 		j	.L1
  82              	.LVL6:
  83              	.L10:
  37:src/../h/tcb.hpp ****             context({(uint64) &threadWrapper,
  84              		.loc 2 37 35
  85 008c 13090000 		li	s2,0
  86              	.LVL7:
  87 0090 6FF09FFB 		j	.L2
  88              	.L7:
  39:src/../h/tcb.hpp ****                     }),
  89              		.loc 2 39 39
  90 0094 13090000 		li	s2,0
  91 0098 6FF0DFFC 		j	.L3
  92              	.L8:
  93 009c 13090500 		mv	s2,a0
  94              	.LBE21:
  95              	.LBE20:
  96              		.loc 1 10 46
  97 00a0 13850400 		mv	a0,s1
  98 00a4 97000000 		call	_ZdlPv@plt
  98      E7800000 
  99              	.LVL8:
 100 00ac 13050900 		mv	a0,s2
 101              	.LEHB2:
 102 00b0 97000000 		call	_Unwind_Resume@plt
 102      E7800000 
 103              	.LVL9:
 104              	.LEHE2:
 105              	.L1:
  11:src/tcb.cpp   **** }
 106              		.loc 1 11 1
GAS LISTING /tmp/cc1MggNY.s 			page 4


 107 00b8 13850400 		mv	a0,s1
 108 00bc 83308102 		ld	ra,40(sp)
 109              		.cfi_restore 1
 110 00c0 03340102 		ld	s0,32(sp)
 111              		.cfi_restore 8
 112              		.cfi_def_cfa 2, 48
 113 00c4 83348101 		ld	s1,24(sp)
 114              		.cfi_restore 9
 115              	.LVL10:
 116 00c8 03390101 		ld	s2,16(sp)
 117              		.cfi_restore 18
 118 00cc 83398100 		ld	s3,8(sp)
 119              		.cfi_restore 19
 120              	.LVL11:
 121 00d0 033A0100 		ld	s4,0(sp)
 122              		.cfi_restore 20
 123              	.LVL12:
 124 00d4 13010103 		addi	sp,sp,48
 125              		.cfi_def_cfa_offset 0
 126 00d8 67800000 		jr	ra
 127              		.cfi_endproc
 128              	.LFE34:
 129              		.globl	__gxx_personality_v0
 130              		.section	.gcc_except_table,"a",@progbits
 131              	.LLSDA34:
 132 0000 FF       		.byte	0xff
 133 0001 FF       		.byte	0xff
 134 0002 03       		.byte	0x3
 135 0003 27       		.byte	0x27
 136 0004 00000000 		.4byte	.LEHB0-.LFB34
 137 0008 00000000 		.4byte	.LEHE0-.LEHB0
 138 000c 00000000 		.4byte	0
 139 0010 00       		.byte	0
 140 0011 00000000 		.4byte	.LEHB1-.LFB34
 141 0015 00000000 		.4byte	.LEHE1-.LEHB1
 142 0019 00000000 		.4byte	.L8-.LFB34
 143 001d 00       		.byte	0
 144 001e 00000000 		.4byte	.LEHB2-.LFB34
 145 0022 00000000 		.4byte	.LEHE2-.LEHB2
 146 0026 00000000 		.4byte	0
 147 002a 00       		.byte	0
 148              		.text
 150              		.align	2
 151              		.globl	_ZN3TCB19createThreadNoStartEPFvPvES0_S0_
 153              	_ZN3TCB19createThreadNoStartEPFvPvES0_S0_:
 154              	.LFB35:
  12:src/tcb.cpp   **** 
  13:src/tcb.cpp   **** TCB* TCB::createThreadNoStart(TCB::Body body, void *args, void *stack_space) {
 155              		.loc 1 13 78 is_stmt 1
 156              		.cfi_startproc
 157              	.LVL13:
 158 00dc 130101FD 		addi	sp,sp,-48
 159              		.cfi_def_cfa_offset 48
 160 00e0 23341102 		sd	ra,40(sp)
 161 00e4 23308102 		sd	s0,32(sp)
 162 00e8 233C9100 		sd	s1,24(sp)
 163 00ec 23382101 		sd	s2,16(sp)
GAS LISTING /tmp/cc1MggNY.s 			page 5


 164 00f0 23343101 		sd	s3,8(sp)
 165              		.cfi_offset 1, -8
 166              		.cfi_offset 8, -16
 167              		.cfi_offset 9, -24
 168              		.cfi_offset 18, -32
 169              		.cfi_offset 19, -40
 170 00f4 13040103 		addi	s0,sp,48
 171              		.cfi_def_cfa 8, 0
 172 00f8 13090500 		mv	s2,a0
 173 00fc 93890500 		mv	s3,a1
 174 0100 93040600 		mv	s1,a2
  14:src/tcb.cpp   ****     return new TCB(body,args,stack_space,false);
 175              		.loc 1 14 5
 176              		.loc 1 14 47 is_stmt 0
 177 0104 13050003 		li	a0,48
 178              	.LVL14:
 179 0108 97000000 		call	_Znwm@plt
 179      E7800000 
 180              	.LVL15:
 181              	.LBB22:
 182              	.LBB23:
  43:src/../h/tcb.hpp ****     {
 183              		.loc 2 43 28
 184 0110 23302501 		sd	s2,0(a0)
 185 0114 23343501 		sd	s3,8(a0)
  37:src/../h/tcb.hpp ****             context({(uint64) &threadWrapper,
 186              		.loc 2 37 35
 187 0118 63060904 		beqz	s2,.L17
 188              	.LVL16:
 189              	.L12:
  43:src/../h/tcb.hpp ****     {
 190              		.loc 2 43 28
 191 011c 23389500 		sd	s1,16(a0)
 192 0120 97070000 		lla	a5,_ZN3TCB13threadWrapperEv
 192      93870700 
 193 0128 233CF500 		sd	a5,24(a0)
  39:src/../h/tcb.hpp ****                     }),
 194              		.loc 2 39 39
 195 012c 63800404 		beqz	s1,.L15
  39:src/../h/tcb.hpp ****                     }),
 196              		.loc 2 39 50
 197 0130 37860000 		li	a2,32768
 198 0134 B384C400 		add	s1,s1,a2
 199              	.L13:
  43:src/../h/tcb.hpp ****     {
 200              		.loc 2 43 28
 201 0138 23309502 		sd	s1,32(a0)
 202 013c 23040502 		sb	zero,40(a0)
 203 0140 A3040502 		sb	zero,41(a0)
 204 0144 23050502 		sb	zero,42(a0)
 205              		.loc 2 45 9 is_stmt 1
 206              	.LVL17:
 207              	.LBE23:
 208              	.LBE22:
  15:src/tcb.cpp   **** }
 209              		.loc 1 15 1 is_stmt 0
 210 0148 83308102 		ld	ra,40(sp)
GAS LISTING /tmp/cc1MggNY.s 			page 6


 211              		.cfi_remember_state
 212              		.cfi_restore 1
 213 014c 03340102 		ld	s0,32(sp)
 214              		.cfi_restore 8
 215              		.cfi_def_cfa 2, 48
 216 0150 83348101 		ld	s1,24(sp)
 217              		.cfi_restore 9
 218 0154 03390101 		ld	s2,16(sp)
 219              		.cfi_restore 18
 220              	.LVL18:
 221 0158 83398100 		ld	s3,8(sp)
 222              		.cfi_restore 19
 223              	.LVL19:
 224 015c 13010103 		addi	sp,sp,48
 225              		.cfi_def_cfa_offset 0
 226 0160 67800000 		jr	ra
 227              	.LVL20:
 228              	.L17:
 229              		.cfi_restore_state
 230              	.LBB25:
 231              	.LBB24:
  37:src/../h/tcb.hpp ****             context({(uint64) &threadWrapper,
 232              		.loc 2 37 35
 233 0164 93040000 		li	s1,0
 234              	.LVL21:
 235 0168 6FF05FFB 		j	.L12
 236              	.L15:
  39:src/../h/tcb.hpp ****                     }),
 237              		.loc 2 39 39
 238 016c 93040000 		li	s1,0
 239 0170 6FF09FFC 		j	.L13
 240              	.LBE24:
 241              	.LBE25:
 242              		.cfi_endproc
 243              	.LFE35:
 245              		.align	2
 246              		.globl	_ZN3TCB5startEv
 248              	_ZN3TCB5startEv:
 249              	.LFB36:
  16:src/tcb.cpp   **** 
  17:src/tcb.cpp   **** int TCB::start() {
 250              		.loc 1 17 18 is_stmt 1
 251              		.cfi_startproc
 252              	.LVL22:
  18:src/tcb.cpp   ****     if(this->body== nullptr || this->finished)return -1;
 253              		.loc 1 18 5
 254              		.loc 1 18 14 is_stmt 0
 255 0174 83370500 		ld	a5,0(a0)
 256              		.loc 1 18 5
 257 0178 638C0702 		beqz	a5,.L20
 258              		.loc 1 18 38 discriminator 2
 259 017c 83478502 		lbu	a5,40(a0)
 260              		.loc 1 18 29 discriminator 2
 261 0180 639C0702 		bnez	a5,.L21
  17:src/tcb.cpp   ****     if(this->body== nullptr || this->finished)return -1;
 262              		.loc 1 17 18
 263 0184 130101FF 		addi	sp,sp,-16
GAS LISTING /tmp/cc1MggNY.s 			page 7


 264              		.cfi_def_cfa_offset 16
 265 0188 23341100 		sd	ra,8(sp)
 266 018c 23308100 		sd	s0,0(sp)
 267              		.cfi_offset 1, -8
 268              		.cfi_offset 8, -16
 269 0190 13040101 		addi	s0,sp,16
 270              		.cfi_def_cfa 8, 0
  19:src/tcb.cpp   ****     Scheduler::put(this);
 271              		.loc 1 19 5 is_stmt 1
 272              		.loc 1 19 19 is_stmt 0
 273 0194 97000000 		call	_ZN9Scheduler3putEP3TCB@plt
 273      E7800000 
 274              	.LVL23:
  20:src/tcb.cpp   ****     return 0;
 275              		.loc 1 20 5 is_stmt 1
 276              		.loc 1 20 12 is_stmt 0
 277 019c 13050000 		li	a0,0
  21:src/tcb.cpp   **** }
 278              		.loc 1 21 1
 279 01a0 83308100 		ld	ra,8(sp)
 280              		.cfi_restore 1
 281 01a4 03340100 		ld	s0,0(sp)
 282              		.cfi_restore 8
 283              		.cfi_def_cfa 2, 16
 284 01a8 13010101 		addi	sp,sp,16
 285              		.cfi_def_cfa_offset 0
 286 01ac 67800000 		jr	ra
 287              	.LVL24:
 288              	.L20:
  18:src/tcb.cpp   ****     Scheduler::put(this);
 289              		.loc 1 18 55
 290 01b0 1305F0FF 		li	a0,-1
 291              	.LVL25:
 292 01b4 67800000 		ret
 293              	.LVL26:
 294              	.L21:
 295 01b8 1305F0FF 		li	a0,-1
 296              	.LVL27:
 297              		.loc 1 21 1
 298 01bc 67800000 		ret
 299              		.cfi_endproc
 300              	.LFE36:
 302              		.align	2
 303              		.globl	_ZN3TCB5yieldEv
 305              	_ZN3TCB5yieldEv:
 306              	.LFB37:
  22:src/tcb.cpp   **** 
  23:src/tcb.cpp   **** 
  24:src/tcb.cpp   **** void TCB::yield() {
 307              		.loc 1 24 19 is_stmt 1
 308              		.cfi_startproc
 309 01c0 130101FF 		addi	sp,sp,-16
 310              		.cfi_def_cfa_offset 16
 311 01c4 23348100 		sd	s0,8(sp)
 312              		.cfi_offset 8, -8
 313 01c8 13040101 		addi	s0,sp,16
 314              		.cfi_def_cfa 8, 0
GAS LISTING /tmp/cc1MggNY.s 			page 8


  25:src/tcb.cpp   ****     uint64 num=0x13;
 315              		.loc 1 25 5
 316              	.LVL28:
  26:src/tcb.cpp   ****     __asm__ volatile("mv a0,%0" : : "r"(num));
 317              		.loc 1 26 5
 318              		.loc 1 26 46 is_stmt 0
 319 01cc 93073001 		li	a5,19
 320              	#APP
 321              	# 26 "src/tcb.cpp" 1
  27              	    __asm__ volatile("ecall");
 322              		mv a0,a5
 323              	# 0 "" 2
 324              		.loc 1 27 5 is_stmt 1
 325              		.loc 1 27 30 is_stmt 0
 326              	# 27 "src/tcb.cpp" 1
  28              	}
 327              		ecall
 328              	# 0 "" 2
 329              		.loc 1 28 1
 330              	#NO_APP
 331 01d8 03348100 		ld	s0,8(sp)
 332              		.cfi_restore 8
 333              		.cfi_def_cfa 2, 16
 334 01dc 13010101 		addi	sp,sp,16
 335              		.cfi_def_cfa_offset 0
 336 01e0 67800000 		jr	ra
 337              		.cfi_endproc
 338              	.LFE37:
 340              		.align	2
 341              		.globl	_ZN3TCB13threadWrapperEv
 343              	_ZN3TCB13threadWrapperEv:
 344              	.LFB40:
  29:src/tcb.cpp   **** 
  30:src/tcb.cpp   **** int TCB::exit() {
  31:src/tcb.cpp   ****     int returnValue;
  32:src/tcb.cpp   ****     if( running== nullptr || running->body== nullptr){
  33:src/tcb.cpp   ****         returnValue=-1;
  34:src/tcb.cpp   **** 
  35:src/tcb.cpp   ****         return returnValue;
  36:src/tcb.cpp   ****     }
  37:src/tcb.cpp   ****     running->setFinished(true);
  38:src/tcb.cpp   ****     TCB::dispatch();
  39:src/tcb.cpp   ****     returnValue=0;
  40:src/tcb.cpp   ****     return returnValue;
  41:src/tcb.cpp   **** }
  42:src/tcb.cpp   **** 
  43:src/tcb.cpp   **** void TCB::dispatch()
  44:src/tcb.cpp   **** {
  45:src/tcb.cpp   ****     TCB *old = running;
  46:src/tcb.cpp   ****     if (!old->isFinished() && !old->isBlocked()) { Scheduler::put(old); }
  47:src/tcb.cpp   ****     running = Scheduler::get();
  48:src/tcb.cpp   ****     if(old->body != nullptr){
  49:src/tcb.cpp   ****         Riscv::mc_sstatus(Riscv::SSTATUS_SPP);
  50:src/tcb.cpp   ****     }else{
  51:src/tcb.cpp   ****         Riscv::ms_sstatus(Riscv::SSTATUS_SPP);
  52:src/tcb.cpp   ****     }
  53:src/tcb.cpp   ****     TCB::contextSwitch(&old->context, &running->context);
GAS LISTING /tmp/cc1MggNY.s 			page 9


  54:src/tcb.cpp   **** }
  55:src/tcb.cpp   **** 
  56:src/tcb.cpp   **** void TCB::threadWrapper() {
 345              		.loc 1 56 27 is_stmt 1
 346              		.cfi_startproc
 347 01e4 130101FE 		addi	sp,sp,-32
 348              		.cfi_def_cfa_offset 32
 349 01e8 233C1100 		sd	ra,24(sp)
 350 01ec 23388100 		sd	s0,16(sp)
 351 01f0 23349100 		sd	s1,8(sp)
 352              		.cfi_offset 1, -8
 353              		.cfi_offset 8, -16
 354              		.cfi_offset 9, -24
 355 01f4 13040102 		addi	s0,sp,32
 356              		.cfi_def_cfa 8, 0
  57:src/tcb.cpp   ****     Riscv::popSppSpie();
 357              		.loc 1 57 5
 358              		.loc 1 57 22 is_stmt 0
 359 01f8 97000000 		call	_ZN5Riscv10popSppSpieEv@plt
 359      E7800000 
 360              	.LVL29:
  58:src/tcb.cpp   ****     running->body(running->args);
 361              		.loc 1 58 5 is_stmt 1
 362              		.loc 1 58 14 is_stmt 0
 363 0200 97040000 		lla	s1,.LANCHOR0
 363      93840400 
 364 0208 83B70400 		ld	a5,0(s1)
 365 020c 03B70700 		ld	a4,0(a5)
 366              		.loc 1 58 18
 367 0210 03B58700 		ld	a0,8(a5)
 368 0214 E7000700 		jalr	a4
 369              	.LVL30:
  59:src/tcb.cpp   ****     running->setFinished(true);
 370              		.loc 1 59 5 is_stmt 1
 371              		.loc 1 59 25 is_stmt 0
 372 0218 83B70400 		ld	a5,0(s1)
 373              	.LVL31:
 374              	.LBB26:
 375              	.LBB27:
  17:src/../h/tcb.hpp ****     void setBlocked (bool value){ blocked=value;}
 376              		.loc 2 17 35 is_stmt 1
  17:src/../h/tcb.hpp ****     void setBlocked (bool value){ blocked=value;}
 377              		.loc 2 17 43 is_stmt 0
 378 021c 13071000 		li	a4,1
 379 0220 2384E702 		sb	a4,40(a5)
 380              	.LVL32:
 381              	.LBE27:
 382              	.LBE26:
  60:src/tcb.cpp   ****     TCB::yield();
 383              		.loc 1 60 5 is_stmt 1
 384              		.loc 1 60 15 is_stmt 0
 385 0224 97000000 		call	_ZN3TCB5yieldEv
 385      E7800000 
 386              	.LVL33:
  61:src/tcb.cpp   **** }...
 387              		.loc 1 61 1
 388 022c 83308101 		ld	ra,24(sp)
GAS LISTING /tmp/cc1MggNY.s 			page 10


 389              		.cfi_restore 1
 390 0230 03340101 		ld	s0,16(sp)
 391              		.cfi_restore 8
 392              		.cfi_def_cfa 2, 32
 393 0234 83348100 		ld	s1,8(sp)
 394              		.cfi_restore 9
 395 0238 13010102 		addi	sp,sp,32
 396              		.cfi_def_cfa_offset 0
 397 023c 67800000 		jr	ra
 398              		.cfi_endproc
 399              	.LFE40:
 401              		.align	2
 402              		.globl	_ZN3TCB8dispatchEv
 404              	_ZN3TCB8dispatchEv:
 405              	.LFB39:
  44:src/tcb.cpp   **** {
 406              		.loc 1 44 1 is_stmt 1
 407              		.cfi_startproc
 408 0240 130101FE 		addi	sp,sp,-32
 409              		.cfi_def_cfa_offset 32
 410 0244 233C1100 		sd	ra,24(sp)
 411 0248 23388100 		sd	s0,16(sp)
 412 024c 23349100 		sd	s1,8(sp)
 413              		.cfi_offset 1, -8
 414              		.cfi_offset 8, -16
 415              		.cfi_offset 9, -24
 416 0250 13040102 		addi	s0,sp,32
 417              		.cfi_def_cfa 8, 0
  45:src/tcb.cpp   ****     TCB *old = running;
 418              		.loc 1 45 5
  45:src/tcb.cpp   ****     TCB *old = running;
 419              		.loc 1 45 10 is_stmt 0
 420 0254 97040000 		ld	s1,.LANCHOR0
 420      83B40400 
 421              	.LVL34:
  46:src/tcb.cpp   ****     if (!old->isFinished() && !old->isBlocked()) { Scheduler::put(old); }
 422              		.loc 1 46 5 is_stmt 1
 423              	.LBB28:
 424              	.LBB29:
  14:src/../h/tcb.hpp ****     bool isBlocked() const { return blocked;}
 425              		.loc 2 14 30
  14:src/../h/tcb.hpp ****     bool isBlocked() const { return blocked;}
 426              		.loc 2 14 37 is_stmt 0
 427 025c 83C78402 		lbu	a5,40(s1)
 428              	.LVL35:
 429              	.LBE29:
 430              	.LBE28:
  46:src/tcb.cpp   ****     if (!old->isFinished() && !old->isBlocked()) { Scheduler::put(old); }
 431              		.loc 1 46 28
 432 0260 63960700 		bnez	a5,.L31
 433              	.LVL36:
 434              	.LBB30:
 435              	.LBB31:
  15:src/../h/tcb.hpp **** 
 436              		.loc 2 15 30 is_stmt 1
  15:src/../h/tcb.hpp **** 
 437              		.loc 2 15 37 is_stmt 0
GAS LISTING /tmp/cc1MggNY.s 			page 11


 438 0264 83C79402 		lbu	a5,41(s1)
 439              	.LVL37:
 440              	.LBE31:
 441              	.LBE30:
  46:src/tcb.cpp   ****     if (!old->isFinished() && !old->isBlocked()) { Scheduler::put(old); }
 442              		.loc 1 46 28
 443 0268 63840704 		beqz	a5,.L35
 444              	.L31:
  47:src/tcb.cpp   ****     running = Scheduler::get();
 445              		.loc 1 47 5 is_stmt 1
  47:src/tcb.cpp   ****     running = Scheduler::get();
 446              		.loc 1 47 29 is_stmt 0
 447 026c 97000000 		call	_ZN9Scheduler3getEv@plt
 447      E7800000 
 448              	.LVL38:
  47:src/tcb.cpp   ****     running = Scheduler::get();
 449              		.loc 1 47 13
 450 0274 97070000 		sd	a0,.LANCHOR0,a5
 450      23B0A700 
  48:src/tcb.cpp   ****     if(old->body != nullptr){
 451              		.loc 1 48 5 is_stmt 1
  48:src/tcb.cpp   ****     if(old->body != nullptr){
 452              		.loc 1 48 13 is_stmt 0
 453 027c 83B70400 		ld	a5,0(s1)
  48:src/tcb.cpp   ****     if(old->body != nullptr){
 454              		.loc 1 48 5
 455 0280 63800704 		beqz	a5,.L32
  49:src/tcb.cpp   ****         Riscv::mc_sstatus(Riscv::SSTATUS_SPP);
 456              		.loc 1 49 9 is_stmt 1
 457              	.LVL39:
 458              	.LBB32:
 459              	.LBB33:
 460              		.file 3 "src/../h/riscv.hpp"
   1:src/../h/riscv.hpp **** 
   2:src/../h/riscv.hpp **** #ifndef OS_NOVI_PROJEKAT_17_7_2024_RISCV_HPP
   3:src/../h/riscv.hpp **** #define OS_NOVI_PROJEKAT_17_7_2024_RISCV_HPP
   4:src/../h/riscv.hpp **** 
   5:src/../h/riscv.hpp **** #include "../lib/hw.h"
   6:src/../h/riscv.hpp **** 
   7:src/../h/riscv.hpp **** class Riscv
   8:src/../h/riscv.hpp **** {
   9:src/../h/riscv.hpp **** public:
  10:src/../h/riscv.hpp **** 
  11:src/../h/riscv.hpp **** 
  12:src/../h/riscv.hpp **** 
  13:src/../h/riscv.hpp ****     // pop sstatus.spp and sstatus.spie bits (has to be a non inline function)
  14:src/../h/riscv.hpp ****     static void popSppSpie();
  15:src/../h/riscv.hpp **** 
  16:src/../h/riscv.hpp ****     // read register scause
  17:src/../h/riscv.hpp ****     static uint64 r_scause();
  18:src/../h/riscv.hpp **** 
  19:src/../h/riscv.hpp ****     // write register scause
  20:src/../h/riscv.hpp ****     static void w_scause(uint64 scause);
  21:src/../h/riscv.hpp **** 
  22:src/../h/riscv.hpp ****     // read register sepc
  23:src/../h/riscv.hpp ****     static uint64 r_sepc();
  24:src/../h/riscv.hpp **** 
GAS LISTING /tmp/cc1MggNY.s 			page 12


  25:src/../h/riscv.hpp ****     // write register sepc
  26:src/../h/riscv.hpp ****     static void w_sepc(uint64 sepc);
  27:src/../h/riscv.hpp **** 
  28:src/../h/riscv.hpp ****     // read register stvec
  29:src/../h/riscv.hpp ****     static uint64 r_stvec();
  30:src/../h/riscv.hpp **** 
  31:src/../h/riscv.hpp ****     // write register stvec
  32:src/../h/riscv.hpp ****     static void w_stvec(uint64 stvec);
  33:src/../h/riscv.hpp **** 
  34:src/../h/riscv.hpp ****     // read register stval
  35:src/../h/riscv.hpp ****     static uint64 r_stval();
  36:src/../h/riscv.hpp **** 
  37:src/../h/riscv.hpp ****     // write register stval
  38:src/../h/riscv.hpp ****     static void w_stval(uint64 stval);
  39:src/../h/riscv.hpp **** 
  40:src/../h/riscv.hpp ****     enum BitMaskSip
  41:src/../h/riscv.hpp ****     {
  42:src/../h/riscv.hpp ****         SIP_SSIP = (1 << 1),
  43:src/../h/riscv.hpp ****         SIP_STIP = (1 << 5),
  44:src/../h/riscv.hpp ****         SIP_SEIP = (1 << 9),
  45:src/../h/riscv.hpp ****     };
  46:src/../h/riscv.hpp **** 
  47:src/../h/riscv.hpp ****     // mask set register sip
  48:src/../h/riscv.hpp ****     static void ms_sip(uint64 mask);
  49:src/../h/riscv.hpp **** 
  50:src/../h/riscv.hpp ****     // mask clear register sip
  51:src/../h/riscv.hpp ****     static void mc_sip(uint64 mask);
  52:src/../h/riscv.hpp **** 
  53:src/../h/riscv.hpp ****     // read register sip
  54:src/../h/riscv.hpp ****     static uint64 r_sip();
  55:src/../h/riscv.hpp **** 
  56:src/../h/riscv.hpp ****     // write register sip
  57:src/../h/riscv.hpp ****     static void w_sip(uint64 sip);
  58:src/../h/riscv.hpp **** 
  59:src/../h/riscv.hpp ****     enum BitMaskSstatus
  60:src/../h/riscv.hpp ****     {
  61:src/../h/riscv.hpp ****         SSTATUS_SIE = (1 << 1),
  62:src/../h/riscv.hpp ****         SSTATUS_SPIE = (1 << 5),
  63:src/../h/riscv.hpp ****         SSTATUS_SPP = (1 << 8),
  64:src/../h/riscv.hpp ****     };
  65:src/../h/riscv.hpp **** 
  66:src/../h/riscv.hpp ****     // mask set register sstatus
  67:src/../h/riscv.hpp ****     static void ms_sstatus(uint64 mask);
  68:src/../h/riscv.hpp **** 
  69:src/../h/riscv.hpp ****     // mask clear register sstatus
  70:src/../h/riscv.hpp ****     static void mc_sstatus(uint64 mask);
  71:src/../h/riscv.hpp **** 
  72:src/../h/riscv.hpp ****     // read register sstatus
  73:src/../h/riscv.hpp ****     static uint64 r_sstatus();
  74:src/../h/riscv.hpp **** 
  75:src/../h/riscv.hpp ****     // write register sstatus
  76:src/../h/riscv.hpp ****     static void w_sstatus(uint64 sstatus);
  77:src/../h/riscv.hpp **** 
  78:src/../h/riscv.hpp ****     // supervisor trap
  79:src/../h/riscv.hpp ****     static void supervisorTrap();
  80:src/../h/riscv.hpp **** 
  81:src/../h/riscv.hpp **** private:
GAS LISTING /tmp/cc1MggNY.s 			page 13


  82:src/../h/riscv.hpp **** 
  83:src/../h/riscv.hpp ****     // supervisor trap handler
  84:src/../h/riscv.hpp ****     static void handleSupervisorTrap();
  85:src/../h/riscv.hpp **** 
  86:src/../h/riscv.hpp **** };
  87:src/../h/riscv.hpp **** 
  88:src/../h/riscv.hpp **** inline uint64 Riscv::r_scause()
  89:src/../h/riscv.hpp **** {
  90:src/../h/riscv.hpp ****     uint64 volatile scause;
  91:src/../h/riscv.hpp ****     __asm__ volatile ("csrr %[scause], scause" : [scause] "=r"(scause));
  92:src/../h/riscv.hpp ****     return scause;
  93:src/../h/riscv.hpp **** }
  94:src/../h/riscv.hpp **** 
  95:src/../h/riscv.hpp **** inline void Riscv::w_scause(uint64 scause)
  96:src/../h/riscv.hpp **** {
  97:src/../h/riscv.hpp ****     __asm__ volatile ("csrw scause, %[scause]" : : [scause] "r"(scause));
  98:src/../h/riscv.hpp **** }
  99:src/../h/riscv.hpp **** 
 100:src/../h/riscv.hpp **** inline uint64 Riscv::r_sepc()
 101:src/../h/riscv.hpp **** {
 102:src/../h/riscv.hpp ****     uint64 volatile sepc;
 103:src/../h/riscv.hpp ****     __asm__ volatile ("csrr %[sepc], sepc" : [sepc] "=r"(sepc));
 104:src/../h/riscv.hpp ****     return sepc;
 105:src/../h/riscv.hpp **** }
 106:src/../h/riscv.hpp **** 
 107:src/../h/riscv.hpp **** inline void Riscv::w_sepc(uint64 sepc)
 108:src/../h/riscv.hpp **** {
 109:src/../h/riscv.hpp ****     __asm__ volatile ("csrw sepc, %[sepc]" : : [sepc] "r"(sepc));
 110:src/../h/riscv.hpp **** }
 111:src/../h/riscv.hpp **** 
 112:src/../h/riscv.hpp **** inline uint64 Riscv::r_stvec()
 113:src/../h/riscv.hpp **** {
 114:src/../h/riscv.hpp ****     uint64 volatile stvec;
 115:src/../h/riscv.hpp ****     __asm__ volatile ("csrr %[stvec], stvec" : [stvec] "=r"(stvec));
 116:src/../h/riscv.hpp ****     return stvec;
 117:src/../h/riscv.hpp **** }
 118:src/../h/riscv.hpp **** 
 119:src/../h/riscv.hpp **** inline void Riscv::w_stvec(uint64 stvec)
 120:src/../h/riscv.hpp **** {
 121:src/../h/riscv.hpp ****     __asm__ volatile ("csrw stvec, %[stvec]" : : [stvec] "r"(stvec));
 122:src/../h/riscv.hpp **** }
 123:src/../h/riscv.hpp **** 
 124:src/../h/riscv.hpp **** inline uint64 Riscv::r_stval()
 125:src/../h/riscv.hpp **** {
 126:src/../h/riscv.hpp ****     uint64 volatile stval;
 127:src/../h/riscv.hpp ****     __asm__ volatile ("csrr %[stval], stval" : [stval] "=r"(stval));
 128:src/../h/riscv.hpp ****     return stval;
 129:src/../h/riscv.hpp **** }
 130:src/../h/riscv.hpp **** 
 131:src/../h/riscv.hpp **** inline void Riscv::w_stval(uint64 stval)
 132:src/../h/riscv.hpp **** {
 133:src/../h/riscv.hpp ****     __asm__ volatile ("csrw stval, %[stval]" : : [stval] "r"(stval));
 134:src/../h/riscv.hpp **** }
 135:src/../h/riscv.hpp **** 
 136:src/../h/riscv.hpp **** inline void Riscv::ms_sip(uint64 mask)
 137:src/../h/riscv.hpp **** {
 138:src/../h/riscv.hpp ****     __asm__ volatile ("csrs sip, %[mask]" : : [mask] "r"(mask));
GAS LISTING /tmp/cc1MggNY.s 			page 14


 139:src/../h/riscv.hpp **** }
 140:src/../h/riscv.hpp **** 
 141:src/../h/riscv.hpp **** inline void Riscv::mc_sip(uint64 mask)
 142:src/../h/riscv.hpp **** {
 143:src/../h/riscv.hpp ****     __asm__ volatile ("csrc sip, %[mask]" : : [mask] "r"(mask));
 144:src/../h/riscv.hpp **** }
 145:src/../h/riscv.hpp **** 
 146:src/../h/riscv.hpp **** inline uint64 Riscv::r_sip()
 147:src/../h/riscv.hpp **** {
 148:src/../h/riscv.hpp ****     uint64 volatile sip;
 149:src/../h/riscv.hpp ****     __asm__ volatile ("csrr %[sip], sip" : [sip] "=r"(sip));
 150:src/../h/riscv.hpp ****     return sip;
 151:src/../h/riscv.hpp **** }
 152:src/../h/riscv.hpp **** 
 153:src/../h/riscv.hpp **** inline void Riscv::w_sip(uint64 sip)
 154:src/../h/riscv.hpp **** {
 155:src/../h/riscv.hpp ****     __asm__ volatile ("csrw sip, %[sip]" : : [sip] "r"(sip));
 156:src/../h/riscv.hpp **** }
 157:src/../h/riscv.hpp **** 
 158:src/../h/riscv.hpp **** inline void Riscv::ms_sstatus(uint64 mask)
 159:src/../h/riscv.hpp **** {
 160:src/../h/riscv.hpp ****     __asm__ volatile ("csrs sstatus, %[mask]" : : [mask] "r"(mask));
 161:src/../h/riscv.hpp **** }
 162:src/../h/riscv.hpp **** 
 163:src/../h/riscv.hpp **** inline void Riscv::mc_sstatus(uint64 mask)
 164:src/../h/riscv.hpp **** {
 165:src/../h/riscv.hpp ****     __asm__ volatile ("csrc sstatus, %[mask]" : : [mask] "r"(mask));
 461              		.loc 3 165 5
 462              		.loc 3 165 68 is_stmt 0
 463 0284 93070010 		li	a5,256
 464              	#APP
 465              	# 165 "src/../h/riscv.hpp" 1
 166              	}
 466              		csrc sstatus, a5
 467              	# 0 "" 2
 468              	.LVL40:
 469              	#NO_APP
 470              	.L33:
 471              	.LBE33:
 472              	.LBE32:
  53:src/tcb.cpp   ****     TCB::contextSwitch(&old->context, &running->context);
 473              		.loc 1 53 5 is_stmt 1
  53:src/tcb.cpp   ****     TCB::contextSwitch(&old->context, &running->context);
 474              		.loc 1 53 23 is_stmt 0
 475 028c 93058501 		addi	a1,a0,24
 476 0290 13858401 		addi	a0,s1,24
 477 0294 97000000 		call	_ZN3TCB13contextSwitchEPNS_7ContextES1_@plt
 477      E7800000 
 478              	.LVL41:
  54:src/tcb.cpp   **** }
 479              		.loc 1 54 1
 480 029c 83308101 		ld	ra,24(sp)
 481              		.cfi_remember_state
 482              		.cfi_restore 1
 483 02a0 03340101 		ld	s0,16(sp)
 484              		.cfi_restore 8
 485              		.cfi_def_cfa 2, 32
GAS LISTING /tmp/cc1MggNY.s 			page 15


 486 02a4 83348100 		ld	s1,8(sp)
 487              		.cfi_restore 9
 488              	.LVL42:
 489 02a8 13010102 		addi	sp,sp,32
 490              		.cfi_def_cfa_offset 0
 491 02ac 67800000 		jr	ra
 492              	.LVL43:
 493              	.L35:
 494              		.cfi_restore_state
  46:src/tcb.cpp   ****     if (!old->isFinished() && !old->isBlocked()) { Scheduler::put(old); }
 495              		.loc 1 46 52 is_stmt 1
  46:src/tcb.cpp   ****     if (!old->isFinished() && !old->isBlocked()) { Scheduler::put(old); }
 496              		.loc 1 46 66 is_stmt 0
 497 02b0 13850400 		mv	a0,s1
 498 02b4 97000000 		call	_ZN9Scheduler3putEP3TCB@plt
 498      E7800000 
 499              	.LVL44:
 500 02bc 6FF01FFB 		j	.L31
 501              	.L32:
  51:src/tcb.cpp   ****         Riscv::ms_sstatus(Riscv::SSTATUS_SPP);
 502              		.loc 1 51 9 is_stmt 1
 503              	.LVL45:
 504              	.LBB34:
 505              	.LBB35:
 160:src/../h/riscv.hpp **** }
 506              		.loc 3 160 5
 160:src/../h/riscv.hpp **** }
 507              		.loc 3 160 68 is_stmt 0
 508 02c0 93070010 		li	a5,256
 509              	#APP
 510              	# 160 "src/../h/riscv.hpp" 1
 161:src/../h/riscv.hpp **** 
 511              		csrs sstatus, a5
 512              	# 0 "" 2
 513              		.loc 3 161 1
 514              	#NO_APP
 515 02c8 6FF05FFC 		j	.L33
 516              	.LBE35:
 517              	.LBE34:
 518              		.cfi_endproc
 519              	.LFE39:
 521              		.align	2
 522              		.globl	_ZN3TCB4exitEv
 524              	_ZN3TCB4exitEv:
 525              	.LFB38:
  30:src/tcb.cpp   **** int TCB::exit() {
 526              		.loc 1 30 17 is_stmt 1
 527              		.cfi_startproc
  31:src/tcb.cpp   ****     int returnValue;
 528              		.loc 1 31 5
  32:src/tcb.cpp   ****     if( running== nullptr || running->body== nullptr){
 529              		.loc 1 32 5
  32:src/tcb.cpp   ****     if( running== nullptr || running->body== nullptr){
 530              		.loc 1 32 16 is_stmt 0
 531 02cc 97070000 		ld	a5,.LANCHOR0
 531      83B70700 
  32:src/tcb.cpp   ****     if( running== nullptr || running->body== nullptr){
GAS LISTING /tmp/cc1MggNY.s 			page 16


 532              		.loc 1 32 5
 533 02d4 63800704 		beqz	a5,.L38
  32:src/tcb.cpp   ****     if( running== nullptr || running->body== nullptr){
 534              		.loc 1 32 39 discriminator 1
 535 02d8 03B70700 		ld	a4,0(a5)
  32:src/tcb.cpp   ****     if( running== nullptr || running->body== nullptr){
 536              		.loc 1 32 27 discriminator 1
 537 02dc 63000704 		beqz	a4,.L39
  30:src/tcb.cpp   **** int TCB::exit() {
 538              		.loc 1 30 17
 539 02e0 130101FF 		addi	sp,sp,-16
 540              		.cfi_def_cfa_offset 16
 541 02e4 23341100 		sd	ra,8(sp)
 542 02e8 23308100 		sd	s0,0(sp)
 543              		.cfi_offset 1, -8
 544              		.cfi_offset 8, -16
 545 02ec 13040101 		addi	s0,sp,16
 546              		.cfi_def_cfa 8, 0
  37:src/tcb.cpp   ****     running->setFinished(true);
 547              		.loc 1 37 5 is_stmt 1
 548              	.LVL46:
 549              	.LBB36:
 550              	.LBB37:
  17:src/../h/tcb.hpp ****     void setBlocked (bool value){ blocked=value;}
 551              		.loc 2 17 35
  17:src/../h/tcb.hpp ****     void setBlocked (bool value){ blocked=value;}
 552              		.loc 2 17 43 is_stmt 0
 553 02f0 13071000 		li	a4,1
 554 02f4 2384E702 		sb	a4,40(a5)
 555              	.LVL47:
 556              	.LBE37:
 557              	.LBE36:
  38:src/tcb.cpp   ****     TCB::dispatch();
 558              		.loc 1 38 5 is_stmt 1
  38:src/tcb.cpp   ****     TCB::dispatch();
 559              		.loc 1 38 18 is_stmt 0
 560 02f8 97000000 		call	_ZN3TCB8dispatchEv
 560      E7800000 
 561              	.LVL48:
  39:src/tcb.cpp   ****     returnValue=0;
 562              		.loc 1 39 5 is_stmt 1
  40:src/tcb.cpp   ****     return returnValue;
 563              		.loc 1 40 5
  40:src/tcb.cpp   ****     return returnValue;
 564              		.loc 1 40 12 is_stmt 0
 565 0300 13050000 		li	a0,0
 566              	.LVL49:
  41:src/tcb.cpp   **** }
 567              		.loc 1 41 1
 568 0304 83308100 		ld	ra,8(sp)
 569              		.cfi_restore 1
 570 0308 03340100 		ld	s0,0(sp)
 571              		.cfi_restore 8
 572              		.cfi_def_cfa 2, 16
 573 030c 13010101 		addi	sp,sp,16
 574              		.cfi_def_cfa_offset 0
 575 0310 67800000 		jr	ra
GAS LISTING /tmp/cc1MggNY.s 			page 17


 576              	.L38:
  35:src/tcb.cpp   ****         return returnValue;
 577              		.loc 1 35 16
 578 0314 1305F0FF 		li	a0,-1
 579 0318 67800000 		ret
 580              	.L39:
 581 031c 1305F0FF 		li	a0,-1
  41:src/tcb.cpp   **** }
 582              		.loc 1 41 1
 583 0320 67800000 		ret
 584              		.cfi_endproc
 585              	.LFE38:
 587              		.globl	_ZN3TCB7runningE
 588              		.bss
 589              		.align	3
 590              		.set	.LANCHOR0,. + 0
 593              	_ZN3TCB7runningE:
 594 0000 00000000 		.zero	8
 594      00000000 
 595              		.text
 596              	.Letext0:
 597              		.file 4 "src/../h/../lib/hw.h"
 598              		.file 5 "src/../h/scheduler.hpp"
 3415              		.align	3
 3418              	DW.ref.__gxx_personality_v0:
 3419 0000 00000000 		.dword	__gxx_personality_v0
 3419      00000000 
 3420              		.ident	"GCC: (Ubuntu 9.4.0-1ubuntu1~20.04) 9.4.0"
 3421              		.section	.note.GNU-stack,"",@progbits
GAS LISTING /tmp/cc1MggNY.s 			page 18


DEFINED SYMBOLS
                            *ABS*:0000000000000000 tcb.cpp
     /tmp/cc1MggNY.s:9      .text:0000000000000000 _ZN3TCB12createThreadEPFvPvES0_S0_
     /tmp/cc1MggNY.s:13     .text:0000000000000000 .L0 
     /tmp/cc1MggNY.s:3418   .data.rel.local.DW.ref.__gxx_personality_v0:0000000000000000 DW.ref.__gxx_personality_v0
     /tmp/cc1MggNY.s:17     .text:0000000000000000 .L0 
     /tmp/cc1MggNY.s:18     .text:0000000000000004 .L0 
     /tmp/cc1MggNY.s:25     .text:000000000000001c .L0 
     /tmp/cc1MggNY.s:26     .text:000000000000001c .L0 
     /tmp/cc1MggNY.s:27     .text:000000000000001c .L0 
     /tmp/cc1MggNY.s:28     .text:000000000000001c .L0 
     /tmp/cc1MggNY.s:29     .text:000000000000001c .L0 
     /tmp/cc1MggNY.s:30     .text:000000000000001c .L0 
     /tmp/cc1MggNY.s:32     .text:0000000000000020 .L0 
     /tmp/cc1MggNY.s:37     .text:000000000000002c .L0 
     /tmp/cc1MggNY.s:38     .text:000000000000002c .L0 
     /tmp/cc1MggNY.s:50     .text:000000000000003c .L0 
     /tmp/cc1MggNY.s:53     .text:0000000000000044 .L0 
     /tmp/cc1MggNY.s:57     .text:0000000000000048 .L0 
     /tmp/cc1MggNY.s:343    .text:00000000000001e4 _ZN3TCB13threadWrapperEv
     /tmp/cc1MggNY.s:61     .text:0000000000000058 .L0 
     /tmp/cc1MggNY.s:63     .text:000000000000005c .L0 
     /tmp/cc1MggNY.s:67     .text:0000000000000064 .L0 
     /tmp/cc1MggNY.s:73     .text:0000000000000078 .L0 
     /tmp/cc1MggNY.s:75     .text:000000000000007c .L0 
     /tmp/cc1MggNY.s:76     .text:000000000000007c .L0 
     /tmp/cc1MggNY.s:85     .text:000000000000008c .L0 
     /tmp/cc1MggNY.s:90     .text:0000000000000094 .L0 
     /tmp/cc1MggNY.s:97     .text:00000000000000a0 .L0 
     /tmp/cc1MggNY.s:107    .text:00000000000000b8 .L0 
     /tmp/cc1MggNY.s:109    .text:00000000000000c0 .L0 
     /tmp/cc1MggNY.s:111    .text:00000000000000c4 .L0 
     /tmp/cc1MggNY.s:112    .text:00000000000000c4 .L0 
     /tmp/cc1MggNY.s:114    .text:00000000000000c8 .L0 
     /tmp/cc1MggNY.s:117    .text:00000000000000cc .L0 
     /tmp/cc1MggNY.s:119    .text:00000000000000d0 .L0 
     /tmp/cc1MggNY.s:122    .text:00000000000000d4 .L0 
     /tmp/cc1MggNY.s:125    .text:00000000000000d8 .L0 
     /tmp/cc1MggNY.s:127    .text:00000000000000dc .L0 
     /tmp/cc1MggNY.s:153    .text:00000000000000dc _ZN3TCB19createThreadNoStartEPFvPvES0_S0_
     /tmp/cc1MggNY.s:156    .text:00000000000000dc .L0 
     /tmp/cc1MggNY.s:158    .text:00000000000000dc .L0 
     /tmp/cc1MggNY.s:159    .text:00000000000000e0 .L0 
     /tmp/cc1MggNY.s:165    .text:00000000000000f4 .L0 
     /tmp/cc1MggNY.s:166    .text:00000000000000f4 .L0 
     /tmp/cc1MggNY.s:167    .text:00000000000000f4 .L0 
     /tmp/cc1MggNY.s:168    .text:00000000000000f4 .L0 
     /tmp/cc1MggNY.s:169    .text:00000000000000f4 .L0 
     /tmp/cc1MggNY.s:171    .text:00000000000000f8 .L0 
     /tmp/cc1MggNY.s:176    .text:0000000000000104 .L0 
     /tmp/cc1MggNY.s:177    .text:0000000000000104 .L0 
     /tmp/cc1MggNY.s:184    .text:0000000000000110 .L0 
     /tmp/cc1MggNY.s:187    .text:0000000000000118 .L0 
     /tmp/cc1MggNY.s:191    .text:000000000000011c .L0 
     /tmp/cc1MggNY.s:195    .text:000000000000012c .L0 
     /tmp/cc1MggNY.s:197    .text:0000000000000130 .L0 
     /tmp/cc1MggNY.s:201    .text:0000000000000138 .L0 
GAS LISTING /tmp/cc1MggNY.s 			page 19


     /tmp/cc1MggNY.s:209    .text:0000000000000148 .L0 
     /tmp/cc1MggNY.s:210    .text:0000000000000148 .L0 
     /tmp/cc1MggNY.s:211    .text:000000000000014c .L0 
     /tmp/cc1MggNY.s:212    .text:000000000000014c .L0 
     /tmp/cc1MggNY.s:214    .text:0000000000000150 .L0 
     /tmp/cc1MggNY.s:215    .text:0000000000000150 .L0 
     /tmp/cc1MggNY.s:217    .text:0000000000000154 .L0 
     /tmp/cc1MggNY.s:219    .text:0000000000000158 .L0 
     /tmp/cc1MggNY.s:222    .text:000000000000015c .L0 
     /tmp/cc1MggNY.s:225    .text:0000000000000160 .L0 
     /tmp/cc1MggNY.s:229    .text:0000000000000164 .L0 
     /tmp/cc1MggNY.s:233    .text:0000000000000164 .L0 
     /tmp/cc1MggNY.s:238    .text:000000000000016c .L0 
     /tmp/cc1MggNY.s:242    .text:0000000000000174 .L0 
     /tmp/cc1MggNY.s:248    .text:0000000000000174 _ZN3TCB5startEv
     /tmp/cc1MggNY.s:251    .text:0000000000000174 .L0 
     /tmp/cc1MggNY.s:253    .text:0000000000000174 .L0 
     /tmp/cc1MggNY.s:254    .text:0000000000000174 .L0 
     /tmp/cc1MggNY.s:255    .text:0000000000000174 .L0 
     /tmp/cc1MggNY.s:257    .text:0000000000000178 .L0 
     /tmp/cc1MggNY.s:259    .text:000000000000017c .L0 
     /tmp/cc1MggNY.s:261    .text:0000000000000180 .L0 
     /tmp/cc1MggNY.s:263    .text:0000000000000184 .L0 
     /tmp/cc1MggNY.s:264    .text:0000000000000188 .L0 
     /tmp/cc1MggNY.s:267    .text:0000000000000190 .L0 
     /tmp/cc1MggNY.s:268    .text:0000000000000190 .L0 
     /tmp/cc1MggNY.s:270    .text:0000000000000194 .L0 
     /tmp/cc1MggNY.s:272    .text:0000000000000194 .L0 
     /tmp/cc1MggNY.s:273    .text:0000000000000194 .L0 
     /tmp/cc1MggNY.s:276    .text:000000000000019c .L0 
     /tmp/cc1MggNY.s:277    .text:000000000000019c .L0 
     /tmp/cc1MggNY.s:279    .text:00000000000001a0 .L0 
     /tmp/cc1MggNY.s:280    .text:00000000000001a4 .L0 
     /tmp/cc1MggNY.s:282    .text:00000000000001a8 .L0 
     /tmp/cc1MggNY.s:283    .text:00000000000001a8 .L0 
     /tmp/cc1MggNY.s:285    .text:00000000000001ac .L0 
     /tmp/cc1MggNY.s:290    .text:00000000000001b0 .L0 
     /tmp/cc1MggNY.s:298    .text:00000000000001bc .L0 
     /tmp/cc1MggNY.s:299    .text:00000000000001c0 .L0 
     /tmp/cc1MggNY.s:305    .text:00000000000001c0 _ZN3TCB5yieldEv
     /tmp/cc1MggNY.s:308    .text:00000000000001c0 .L0 
     /tmp/cc1MggNY.s:309    .text:00000000000001c0 .L0 
     /tmp/cc1MggNY.s:310    .text:00000000000001c4 .L0 
     /tmp/cc1MggNY.s:312    .text:00000000000001c8 .L0 
     /tmp/cc1MggNY.s:314    .text:00000000000001cc .L0 
     /tmp/cc1MggNY.s:317    .text:00000000000001cc .L0 
     /tmp/cc1MggNY.s:318    .text:00000000000001cc .L0 
     /tmp/cc1MggNY.s:319    .text:00000000000001cc .L0 
     /tmp/cc1MggNY.s:325    .text:00000000000001d4 .L0 
         src/tcb.cpp:27     .text:00000000000001d4 .L0 
     /tmp/cc1MggNY.s:331    .text:00000000000001d8 .L0 
     /tmp/cc1MggNY.s:332    .text:00000000000001dc .L0 
     /tmp/cc1MggNY.s:333    .text:00000000000001dc .L0 
     /tmp/cc1MggNY.s:335    .text:00000000000001e0 .L0 
     /tmp/cc1MggNY.s:337    .text:00000000000001e4 .L0 
     /tmp/cc1MggNY.s:346    .text:00000000000001e4 .L0 
     /tmp/cc1MggNY.s:347    .text:00000000000001e4 .L0 
GAS LISTING /tmp/cc1MggNY.s 			page 20


     /tmp/cc1MggNY.s:348    .text:00000000000001e8 .L0 
     /tmp/cc1MggNY.s:352    .text:00000000000001f4 .L0 
     /tmp/cc1MggNY.s:353    .text:00000000000001f4 .L0 
     /tmp/cc1MggNY.s:354    .text:00000000000001f4 .L0 
     /tmp/cc1MggNY.s:356    .text:00000000000001f8 .L0 
     /tmp/cc1MggNY.s:358    .text:00000000000001f8 .L0 
     /tmp/cc1MggNY.s:359    .text:00000000000001f8 .L0 
     /tmp/cc1MggNY.s:362    .text:0000000000000200 .L0 
     /tmp/cc1MggNY.s:363    .text:0000000000000200 .L0 
     /tmp/cc1MggNY.s:367    .text:0000000000000210 .L0 
     /tmp/cc1MggNY.s:371    .text:0000000000000218 .L0 
     /tmp/cc1MggNY.s:372    .text:0000000000000218 .L0 
     /tmp/cc1MggNY.s:377    .text:000000000000021c .L0 
     /tmp/cc1MggNY.s:378    .text:000000000000021c .L0 
     /tmp/cc1MggNY.s:384    .text:0000000000000224 .L0 
     /tmp/cc1MggNY.s:385    .text:0000000000000224 .L0 
     /tmp/cc1MggNY.s:388    .text:000000000000022c .L0 
     /tmp/cc1MggNY.s:389    .text:0000000000000230 .L0 
     /tmp/cc1MggNY.s:391    .text:0000000000000234 .L0 
     /tmp/cc1MggNY.s:392    .text:0000000000000234 .L0 
     /tmp/cc1MggNY.s:394    .text:0000000000000238 .L0 
     /tmp/cc1MggNY.s:396    .text:000000000000023c .L0 
     /tmp/cc1MggNY.s:398    .text:0000000000000240 .L0 
     /tmp/cc1MggNY.s:404    .text:0000000000000240 _ZN3TCB8dispatchEv
     /tmp/cc1MggNY.s:407    .text:0000000000000240 .L0 
     /tmp/cc1MggNY.s:408    .text:0000000000000240 .L0 
     /tmp/cc1MggNY.s:409    .text:0000000000000244 .L0 
     /tmp/cc1MggNY.s:413    .text:0000000000000250 .L0 
     /tmp/cc1MggNY.s:414    .text:0000000000000250 .L0 
     /tmp/cc1MggNY.s:415    .text:0000000000000250 .L0 
     /tmp/cc1MggNY.s:417    .text:0000000000000254 .L0 
     /tmp/cc1MggNY.s:419    .text:0000000000000254 .L0 
     /tmp/cc1MggNY.s:420    .text:0000000000000254 .L0 
     /tmp/cc1MggNY.s:425    .text:000000000000025c .L0 
     /tmp/cc1MggNY.s:426    .text:000000000000025c .L0 
     /tmp/cc1MggNY.s:427    .text:000000000000025c .L0 
     /tmp/cc1MggNY.s:432    .text:0000000000000260 .L0 
     /tmp/cc1MggNY.s:437    .text:0000000000000264 .L0 
     /tmp/cc1MggNY.s:438    .text:0000000000000264 .L0 
     /tmp/cc1MggNY.s:443    .text:0000000000000268 .L0 
     /tmp/cc1MggNY.s:446    .text:000000000000026c .L0 
     /tmp/cc1MggNY.s:447    .text:000000000000026c .L0 
     /tmp/cc1MggNY.s:450    .text:0000000000000274 .L0 
     /tmp/cc1MggNY.s:452    .text:000000000000027c .L0 
     /tmp/cc1MggNY.s:453    .text:000000000000027c .L0 
     /tmp/cc1MggNY.s:455    .text:0000000000000280 .L0 
     /tmp/cc1MggNY.s:461    .text:0000000000000284 .L0 
     /tmp/cc1MggNY.s:462    .text:0000000000000284 .L0 
     /tmp/cc1MggNY.s:463    .text:0000000000000284 .L0 
     /tmp/cc1MggNY.s:474    .text:000000000000028c .L0 
     /tmp/cc1MggNY.s:475    .text:000000000000028c .L0 
     /tmp/cc1MggNY.s:480    .text:000000000000029c .L0 
     /tmp/cc1MggNY.s:481    .text:00000000000002a0 .L0 
     /tmp/cc1MggNY.s:482    .text:00000000000002a0 .L0 
     /tmp/cc1MggNY.s:484    .text:00000000000002a4 .L0 
     /tmp/cc1MggNY.s:485    .text:00000000000002a4 .L0 
     /tmp/cc1MggNY.s:487    .text:00000000000002a8 .L0 
GAS LISTING /tmp/cc1MggNY.s 			page 21


     /tmp/cc1MggNY.s:490    .text:00000000000002ac .L0 
     /tmp/cc1MggNY.s:494    .text:00000000000002b0 .L0 
     /tmp/cc1MggNY.s:496    .text:00000000000002b0 .L0 
     /tmp/cc1MggNY.s:497    .text:00000000000002b0 .L0 
     /tmp/cc1MggNY.s:506    .text:00000000000002c0 .L0 
     /tmp/cc1MggNY.s:507    .text:00000000000002c0 .L0 
     /tmp/cc1MggNY.s:508    .text:00000000000002c0 .L0 
     /tmp/cc1MggNY.s:515    .text:00000000000002c8 .L0 
     /tmp/cc1MggNY.s:518    .text:00000000000002cc .L0 
     /tmp/cc1MggNY.s:524    .text:00000000000002cc _ZN3TCB4exitEv
     /tmp/cc1MggNY.s:527    .text:00000000000002cc .L0 
     /tmp/cc1MggNY.s:528    .text:00000000000002cc .L0 
     /tmp/cc1MggNY.s:529    .text:00000000000002cc .L0 
     /tmp/cc1MggNY.s:530    .text:00000000000002cc .L0 
     /tmp/cc1MggNY.s:531    .text:00000000000002cc .L0 
     /tmp/cc1MggNY.s:533    .text:00000000000002d4 .L0 
     /tmp/cc1MggNY.s:535    .text:00000000000002d8 .L0 
     /tmp/cc1MggNY.s:537    .text:00000000000002dc .L0 
     /tmp/cc1MggNY.s:539    .text:00000000000002e0 .L0 
     /tmp/cc1MggNY.s:540    .text:00000000000002e4 .L0 
     /tmp/cc1MggNY.s:543    .text:00000000000002ec .L0 
     /tmp/cc1MggNY.s:544    .text:00000000000002ec .L0 
     /tmp/cc1MggNY.s:546    .text:00000000000002f0 .L0 
     /tmp/cc1MggNY.s:551    .text:00000000000002f0 .L0 
     /tmp/cc1MggNY.s:552    .text:00000000000002f0 .L0 
     /tmp/cc1MggNY.s:553    .text:00000000000002f0 .L0 
     /tmp/cc1MggNY.s:559    .text:00000000000002f8 .L0 
     /tmp/cc1MggNY.s:560    .text:00000000000002f8 .L0 
     /tmp/cc1MggNY.s:563    .text:0000000000000300 .L0 
     /tmp/cc1MggNY.s:564    .text:0000000000000300 .L0 
     /tmp/cc1MggNY.s:565    .text:0000000000000300 .L0 
     /tmp/cc1MggNY.s:568    .text:0000000000000304 .L0 
     /tmp/cc1MggNY.s:569    .text:0000000000000308 .L0 
     /tmp/cc1MggNY.s:571    .text:000000000000030c .L0 
     /tmp/cc1MggNY.s:572    .text:000000000000030c .L0 
     /tmp/cc1MggNY.s:574    .text:0000000000000310 .L0 
     /tmp/cc1MggNY.s:578    .text:0000000000000314 .L0 
     /tmp/cc1MggNY.s:583    .text:0000000000000320 .L0 
     /tmp/cc1MggNY.s:584    .text:0000000000000324 .L0 
     /tmp/cc1MggNY.s:593    .bss:0000000000000000 _ZN3TCB7runningE
     /tmp/cc1MggNY.s:590    .bss:0000000000000000 .LANCHOR0
     /tmp/cc1MggNY.s:599    .text:0000000000000324 .L0 
     /tmp/cc1MggNY.s:58     .text:000000000000004c .L0 
     /tmp/cc1MggNY.s:192    .text:0000000000000120 .L0 
     /tmp/cc1MggNY.s:363    .text:0000000000000200 .L0 
     /tmp/cc1MggNY.s:420    .text:0000000000000254 .L0 
     /tmp/cc1MggNY.s:450    .text:0000000000000274 .L0 
     /tmp/cc1MggNY.s:531    .text:00000000000002cc .L0 
     /tmp/cc1MggNY.s:83     .text:000000000000008c .L10
     /tmp/cc1MggNY.s:88     .text:0000000000000094 .L7
     /tmp/cc1MggNY.s:105    .text:00000000000000b8 .L1
     /tmp/cc1MggNY.s:55     .text:0000000000000048 .L2
     /tmp/cc1MggNY.s:65     .text:0000000000000064 .L3
     /tmp/cc1MggNY.s:228    .text:0000000000000164 .L17
     /tmp/cc1MggNY.s:236    .text:000000000000016c .L15
     /tmp/cc1MggNY.s:189    .text:000000000000011c .L12
     /tmp/cc1MggNY.s:199    .text:0000000000000138 .L13
GAS LISTING /tmp/cc1MggNY.s 			page 22


     /tmp/cc1MggNY.s:288    .text:00000000000001b0 .L20
     /tmp/cc1MggNY.s:294    .text:00000000000001b8 .L21
     /tmp/cc1MggNY.s:444    .text:000000000000026c .L31
     /tmp/cc1MggNY.s:493    .text:00000000000002b0 .L35
     /tmp/cc1MggNY.s:501    .text:00000000000002c0 .L32
     /tmp/cc1MggNY.s:470    .text:000000000000028c .L33
     /tmp/cc1MggNY.s:576    .text:0000000000000314 .L38
     /tmp/cc1MggNY.s:580    .text:000000000000031c .L39
     /tmp/cc1MggNY.s:40     .text:0000000000000030 .LEHB0
     /tmp/cc1MggNY.s:10     .text:0000000000000000 .LFB34
     /tmp/cc1MggNY.s:43     .text:0000000000000038 .LEHE0
     /tmp/cc1MggNY.s:77     .text:0000000000000080 .LEHB1
     /tmp/cc1MggNY.s:80     .text:0000000000000088 .LEHE1
     /tmp/cc1MggNY.s:92     .text:000000000000009c .L8
     /tmp/cc1MggNY.s:101    .text:00000000000000b0 .LEHB2
     /tmp/cc1MggNY.s:104    .text:00000000000000b8 .LEHE2
     /tmp/cc1MggNY.s:1762   .debug_abbrev:0000000000000000 .Ldebug_abbrev0
     /tmp/cc1MggNY.s:3368   .debug_str:000000000000056c .LASF104
     /tmp/cc1MggNY.s:3284   .debug_str:0000000000000325 .LASF105
     /tmp/cc1MggNY.s:3310   .debug_str:00000000000003be .LASF106
     /tmp/cc1MggNY.s:5      .text:0000000000000000 .Ltext0
     /tmp/cc1MggNY.s:596    .text:0000000000000324 .Letext0
     /tmp/cc1MggNY.s:3170   .debug_line:0000000000000000 .Ldebug_line0
     /tmp/cc1MggNY.s:3302   .debug_str:000000000000039b .LASF0
     /tmp/cc1MggNY.s:3316   .debug_str:00000000000003f6 .LASF1
     /tmp/cc1MggNY.s:3292   .debug_str:0000000000000354 .LASF2
     /tmp/cc1MggNY.s:3260   .debug_str:0000000000000297 .LASF4
     /tmp/cc1MggNY.s:3344   .debug_str:00000000000004ae .LASF3
     /tmp/cc1MggNY.s:3190   .debug_str:000000000000004e .LASF5
     /tmp/cc1MggNY.s:3318   .debug_str:0000000000000409 .LASF6
     /tmp/cc1MggNY.s:3300   .debug_str:0000000000000388 .LASF7
     /tmp/cc1MggNY.s:3374   .debug_str:0000000000000655 .LASF8
     /tmp/cc1MggNY.s:3246   .debug_str:00000000000001fc .LASF9
     /tmp/cc1MggNY.s:3326   .debug_str:0000000000000436 .LASF10
     /tmp/cc1MggNY.s:3370   .debug_str:0000000000000630 .LASF11
     /tmp/cc1MggNY.s:3194   .debug_str:0000000000000061 .LASF12
     /tmp/cc1MggNY.s:3176   .debug_str:0000000000000010 .LASF13
     /tmp/cc1MggNY.s:3206   .debug_str:00000000000000cd .LASF14
     /tmp/cc1MggNY.s:3338   .debug_str:000000000000047a .LASF15
     /tmp/cc1MggNY.s:3212   .debug_str:00000000000000f6 .LASF16
     /tmp/cc1MggNY.s:3324   .debug_str:000000000000042c .LASF17
     /tmp/cc1MggNY.s:3236   .debug_str:00000000000001b3 .LASF107
     /tmp/cc1MggNY.s:3256   .debug_str:000000000000025b .LASF108
     /tmp/cc1MggNY.s:3202   .debug_str:00000000000000ab .LASF109
     /tmp/cc1MggNY.s:3280   .debug_str:0000000000000305 .LASF110
     /tmp/cc1MggNY.s:3184   .debug_str:0000000000000039 .LASF111
     /tmp/cc1MggNY.s:3220   .debug_str:0000000000000151 .LASF22
     /tmp/cc1MggNY.s:3332   .debug_str:000000000000045e .LASF24
     /tmp/cc1MggNY.s:3320   .debug_str:000000000000041c .LASF18
     /tmp/cc1MggNY.s:3244   .debug_str:00000000000001e5 .LASF20
     /tmp/cc1MggNY.s:3182   .debug_str:000000000000002f .LASF19
     /tmp/cc1MggNY.s:3274   .debug_str:00000000000002d7 .LASF21
     /tmp/cc1MggNY.s:3294   .debug_str:0000000000000362 .LASF23
     /tmp/cc1MggNY.s:3404   .debug_str:000000000000076c .LASF25
     /tmp/cc1MggNY.s:3262   .debug_str:000000000000029e .LASF26
     /tmp/cc1MggNY.s:3372   .debug_str:000000000000063f .LASF27
     /tmp/cc1MggNY.s:3272   .debug_str:00000000000002ca .LASF28
GAS LISTING /tmp/cc1MggNY.s 			page 23


     /tmp/cc1MggNY.s:3378   .debug_str:000000000000067d .LASF29
     /tmp/cc1MggNY.s:3334   .debug_str:000000000000046a .LASF112
     /tmp/cc1MggNY.s:3252   .debug_str:0000000000000238 .LASF30
     /tmp/cc1MggNY.s:3390   .debug_str:00000000000006f0 .LASF31
     /tmp/cc1MggNY.s:3314   .debug_str:00000000000003f0 .LASF32
     /tmp/cc1MggNY.s:3290   .debug_str:0000000000000344 .LASF33
     /tmp/cc1MggNY.s:3340   .debug_str:0000000000000490 .LASF42
     /tmp/cc1MggNY.s:3298   .debug_str:0000000000000378 .LASF44
     /tmp/cc1MggNY.s:3226   .debug_str:0000000000000177 .LASF113
     /tmp/cc1MggNY.s:3248   .debug_str:000000000000020a .LASF114
     /tmp/cc1MggNY.s:3266   .debug_str:00000000000002b2 .LASF34
     /tmp/cc1MggNY.s:3196   .debug_str:0000000000000071 .LASF35
     /tmp/cc1MggNY.s:3308   .debug_str:00000000000003b8 .LASF36
     /tmp/cc1MggNY.s:3270   .debug_str:00000000000002c2 .LASF37
     /tmp/cc1MggNY.s:3264   .debug_str:00000000000002a9 .LASF38
     /tmp/cc1MggNY.s:3172   .debug_str:0000000000000000 .LASF39
     /tmp/cc1MggNY.s:3210   .debug_str:00000000000000ee .LASF40
     /tmp/cc1MggNY.s:3278   .debug_str:00000000000002f7 .LASF46
     /tmp/cc1MggNY.s:3198   .debug_str:0000000000000076 .LASF48
     /tmp/cc1MggNY.s:3382   .debug_str:00000000000006b5 .LASF41
     /tmp/cc1MggNY.s:3258   .debug_str:000000000000026f .LASF115
     /tmp/cc1MggNY.s:3322   .debug_str:0000000000000427 .LASF43
     /tmp/cc1MggNY.s:3398   .debug_str:000000000000074a .LASF45
     /tmp/cc1MggNY.s:3306   .debug_str:00000000000003af .LASF47
     /tmp/cc1MggNY.s:3232   .debug_str:000000000000019b .LASF49
     /tmp/cc1MggNY.s:3276   .debug_str:00000000000002ec .LASF116
     /tmp/cc1MggNY.s:3234   .debug_str:00000000000001ae .LASF50
     /tmp/cc1MggNY.s:3312   .debug_str:00000000000003ea .LASF51
     /tmp/cc1MggNY.s:3216   .debug_str:0000000000000120 .LASF117
     /tmp/cc1MggNY.s:3362   .debug_str:0000000000000547 .LASF52
     /tmp/cc1MggNY.s:3388   .debug_str:00000000000006e3 .LASF53
     /tmp/cc1MggNY.s:3192   .debug_str:0000000000000055 .LASF54
     /tmp/cc1MggNY.s:3336   .debug_str:000000000000046f .LASF55
     /tmp/cc1MggNY.s:3396   .debug_str:0000000000000732 .LASF56
     /tmp/cc1MggNY.s:3178   .debug_str:0000000000000020 .LASF57
     /tmp/cc1MggNY.s:3356   .debug_str:0000000000000507 .LASF60
     /tmp/cc1MggNY.s:3222   .debug_str:0000000000000156 .LASF58
     /tmp/cc1MggNY.s:3208   .debug_str:00000000000000d9 .LASF63
     /tmp/cc1MggNY.s:3346   .debug_str:00000000000004c0 .LASF59
     /tmp/cc1MggNY.s:3330   .debug_str:000000000000044b .LASF61
     /tmp/cc1MggNY.s:3366   .debug_str:0000000000000565 .LASF62
     /tmp/cc1MggNY.s:3360   .debug_str:0000000000000534 .LASF64
     /tmp/cc1MggNY.s:3240   .debug_str:00000000000001d7 .LASF65
     /tmp/cc1MggNY.s:3214   .debug_str:000000000000010c .LASF66
     /tmp/cc1MggNY.s:3174   .debug_str:0000000000000008 .LASF67
     /tmp/cc1MggNY.s:3348   .debug_str:00000000000004c7 .LASF68
     /tmp/cc1MggNY.s:3228   .debug_str:000000000000017f .LASF69
     /tmp/cc1MggNY.s:3384   .debug_str:00000000000006c3 .LASF70
     /tmp/cc1MggNY.s:3402   .debug_str:0000000000000764 .LASF71
     /tmp/cc1MggNY.s:3230   .debug_str:0000000000000187 .LASF72
     /tmp/cc1MggNY.s:3304   .debug_str:00000000000003a8 .LASF73
     /tmp/cc1MggNY.s:3392   .debug_str:000000000000071a .LASF74
     /tmp/cc1MggNY.s:3188   .debug_str:0000000000000047 .LASF75
     /tmp/cc1MggNY.s:3238   .debug_str:00000000000001c4 .LASF76
     /tmp/cc1MggNY.s:3242   .debug_str:00000000000001df .LASF77
     /tmp/cc1MggNY.s:3364   .debug_str:0000000000000553 .LASF78
     /tmp/cc1MggNY.s:3186   .debug_str:0000000000000041 .LASF79
GAS LISTING /tmp/cc1MggNY.s 			page 24


     /tmp/cc1MggNY.s:3410   .debug_str:0000000000000799 .LASF80
     /tmp/cc1MggNY.s:3400   .debug_str:0000000000000759 .LASF81
     /tmp/cc1MggNY.s:3342   .debug_str:0000000000000496 .LASF82
     /tmp/cc1MggNY.s:3268   .debug_str:00000000000002b7 .LASF83
     /tmp/cc1MggNY.s:3358   .debug_str:000000000000051c .LASF84
     /tmp/cc1MggNY.s:3204   .debug_str:00000000000000c3 .LASF85
     /tmp/cc1MggNY.s:3282   .debug_str:000000000000030f .LASF86
     /tmp/cc1MggNY.s:3296   .debug_str:000000000000036e .LASF87
     /tmp/cc1MggNY.s:3250   .debug_str:0000000000000222 .LASF88
     /tmp/cc1MggNY.s:3350   .debug_str:00000000000004db .LASF89
     /tmp/cc1MggNY.s:3200   .debug_str:000000000000008f .LASF90
     /tmp/cc1MggNY.s:3380   .debug_str:00000000000006a0 .LASF91
     /tmp/cc1MggNY.s:3218   .debug_str:000000000000012f .LASF92
     /tmp/cc1MggNY.s:3408   .debug_str:0000000000000788 .LASF118
     /tmp/cc1MggNY.s:344    .text:00000000000001e4 .LFB40
     /tmp/cc1MggNY.s:399    .text:0000000000000240 .LFE40
     /tmp/cc1MggNY.s:374    .text:000000000000021c .LBB26
     /tmp/cc1MggNY.s:382    .text:0000000000000224 .LBE26
     /tmp/cc1MggNY.s:2772   .debug_loc:0000000000000000 .LLST16
     /tmp/cc1MggNY.s:2780   .debug_loc:0000000000000024 .LLST17
     /tmp/cc1MggNY.s:360    .text:0000000000000200 .LVL29
     /tmp/cc1MggNY.s:386    .text:000000000000022c .LVL33
     /tmp/cc1MggNY.s:405    .text:0000000000000240 .LFB39
     /tmp/cc1MggNY.s:519    .text:00000000000002cc .LFE39
     /tmp/cc1MggNY.s:2787   .debug_loc:0000000000000047 .LLST18
     /tmp/cc1MggNY.s:423    .text:000000000000025c .LBB28
     /tmp/cc1MggNY.s:430    .text:0000000000000260 .LBE28
     /tmp/cc1MggNY.s:2798   .debug_loc:000000000000007d .LLST19
     /tmp/cc1MggNY.s:434    .text:0000000000000264 .LBB30
     /tmp/cc1MggNY.s:441    .text:0000000000000268 .LBE30
     /tmp/cc1MggNY.s:2805   .debug_loc:00000000000000a0 .LLST20
     /tmp/cc1MggNY.s:458    .text:0000000000000284 .LBB32
     /tmp/cc1MggNY.s:472    .text:000000000000028c .LBE32
     /tmp/cc1MggNY.s:2812   .debug_loc:00000000000000c3 .LLST21
     /tmp/cc1MggNY.s:504    .text:00000000000002c0 .LBB34
     /tmp/cc1MggNY.s:517    .text:00000000000002cc .LBE34
     /tmp/cc1MggNY.s:448    .text:0000000000000274 .LVL38
     /tmp/cc1MggNY.s:478    .text:000000000000029c .LVL41
     /tmp/cc1MggNY.s:499    .text:00000000000002bc .LVL44
     /tmp/cc1MggNY.s:525    .text:00000000000002cc .LFB38
     /tmp/cc1MggNY.s:585    .text:0000000000000324 .LFE38
     /tmp/cc1MggNY.s:3286   .debug_str:0000000000000331 .LASF93
     /tmp/cc1MggNY.s:2821   .debug_loc:00000000000000e9 .LLST22
     /tmp/cc1MggNY.s:549    .text:00000000000002f0 .LBB36
     /tmp/cc1MggNY.s:557    .text:00000000000002f8 .LBE36
     /tmp/cc1MggNY.s:2829   .debug_loc:000000000000010d .LLST23
     /tmp/cc1MggNY.s:2837   .debug_loc:0000000000000131 .LLST24
     /tmp/cc1MggNY.s:561    .text:0000000000000300 .LVL48
     /tmp/cc1MggNY.s:306    .text:00000000000001c0 .LFB37
     /tmp/cc1MggNY.s:338    .text:00000000000001e4 .LFE37
     /tmp/cc1MggNY.s:249    .text:0000000000000174 .LFB36
     /tmp/cc1MggNY.s:300    .text:00000000000001c0 .LFE36
     /tmp/cc1MggNY.s:3394   .debug_str:000000000000072d .LASF96
     /tmp/cc1MggNY.s:2844   .debug_loc:0000000000000154 .LLST15
     /tmp/cc1MggNY.s:274    .text:000000000000019c .LVL23
     /tmp/cc1MggNY.s:154    .text:00000000000000dc .LFB35
     /tmp/cc1MggNY.s:243    .text:0000000000000174 .LFE35
GAS LISTING /tmp/cc1MggNY.s 			page 25


     /tmp/cc1MggNY.s:2880   .debug_loc:00000000000001df .LLST7
     /tmp/cc1MggNY.s:2900   .debug_loc:000000000000023c .LLST8
     /tmp/cc1MggNY.s:3386   .debug_str:00000000000006d7 .LASF94
     /tmp/cc1MggNY.s:2920   .debug_loc:0000000000000299 .LLST9
     /tmp/cc1MggNY.s:181    .text:0000000000000110 .LBB22
     /tmp/cc1MggNY.s:3162   .debug_ranges:0000000000000000 .Ldebug_ranges0
     /tmp/cc1MggNY.s:2949   .debug_loc:000000000000030e .LLST10
     /tmp/cc1MggNY.s:2962   .debug_loc:0000000000000346 .LLST11
     /tmp/cc1MggNY.s:2987   .debug_loc:00000000000003a8 .LLST12
     /tmp/cc1MggNY.s:2998   .debug_loc:00000000000003de .LLST13
     /tmp/cc1MggNY.s:3009   .debug_loc:0000000000000414 .LLST14
     /tmp/cc1MggNY.s:180    .text:0000000000000110 .LVL15
     /tmp/cc1MggNY.s:128    .text:00000000000000dc .LFE34
     /tmp/cc1MggNY.s:3020   .debug_loc:000000000000044a .LLST0
     /tmp/cc1MggNY.s:3038   .debug_loc:0000000000000496 .LLST1
     /tmp/cc1MggNY.s:3056   .debug_loc:00000000000004e2 .LLST2
     /tmp/cc1MggNY.s:46     .text:000000000000003c .LBB20
     /tmp/cc1MggNY.s:95     .text:00000000000000a0 .LBE20
     /tmp/cc1MggNY.s:3085   .debug_loc:0000000000000557 .LLST3
     /tmp/cc1MggNY.s:3110   .debug_loc:00000000000005b9 .LLST4
     /tmp/cc1MggNY.s:3124   .debug_loc:00000000000005f2 .LLST5
     /tmp/cc1MggNY.s:3138   .debug_loc:000000000000062b .LLST6
     /tmp/cc1MggNY.s:79     .text:0000000000000088 .LVL5
     /tmp/cc1MggNY.s:42     .text:0000000000000038 .LVL2
     /tmp/cc1MggNY.s:99     .text:00000000000000ac .LVL8
     /tmp/cc1MggNY.s:103    .text:00000000000000b8 .LVL9
     /tmp/cc1MggNY.s:3406   .debug_str:0000000000000783 .LASF95
     /tmp/cc1MggNY.s:3224   .debug_str:000000000000015f .LASF119
     /tmp/cc1MggNY.s:3328   .debug_str:0000000000000445 .LASF97
     /tmp/cc1MggNY.s:3180   .debug_str:0000000000000029 .LASF98
     /tmp/cc1MggNY.s:3354   .debug_str:00000000000004fa .LASF100
     /tmp/cc1MggNY.s:3288   .debug_str:000000000000033d .LASF99
     /tmp/cc1MggNY.s:3352   .debug_str:00000000000004ea .LASF101
     /tmp/cc1MggNY.s:3254   .debug_str:000000000000024c .LASF102
     /tmp/cc1MggNY.s:3376   .debug_str:0000000000000665 .LASF103
     /tmp/cc1MggNY.s:373    .text:000000000000021c .LVL31
     /tmp/cc1MggNY.s:380    .text:0000000000000224 .LVL32
     /tmp/cc1MggNY.s:421    .text:000000000000025c .LVL34
     /tmp/cc1MggNY.s:488    .text:00000000000002a8 .LVL42
     /tmp/cc1MggNY.s:492    .text:00000000000002b0 .LVL43
     /tmp/cc1MggNY.s:428    .text:0000000000000260 .LVL35
     /tmp/cc1MggNY.s:433    .text:0000000000000264 .LVL36
     /tmp/cc1MggNY.s:439    .text:0000000000000268 .LVL37
     /tmp/cc1MggNY.s:457    .text:0000000000000284 .LVL39
     /tmp/cc1MggNY.s:468    .text:000000000000028c .LVL40
     /tmp/cc1MggNY.s:566    .text:0000000000000304 .LVL49
     /tmp/cc1MggNY.s:548    .text:00000000000002f0 .LVL46
     /tmp/cc1MggNY.s:555    .text:00000000000002f8 .LVL47
     /tmp/cc1MggNY.s:252    .text:0000000000000174 .LVL22
     /tmp/cc1MggNY.s:287    .text:00000000000001b0 .LVL24
     /tmp/cc1MggNY.s:291    .text:00000000000001b4 .LVL25
     /tmp/cc1MggNY.s:293    .text:00000000000001b8 .LVL26
     /tmp/cc1MggNY.s:296    .text:00000000000001bc .LVL27
     /tmp/cc1MggNY.s:157    .text:00000000000000dc .LVL13
     /tmp/cc1MggNY.s:178    .text:0000000000000108 .LVL14
     /tmp/cc1MggNY.s:220    .text:0000000000000158 .LVL18
     /tmp/cc1MggNY.s:227    .text:0000000000000164 .LVL20
GAS LISTING /tmp/cc1MggNY.s 			page 26


     /tmp/cc1MggNY.s:223    .text:000000000000015c .LVL19
     /tmp/cc1MggNY.s:188    .text:000000000000011c .LVL16
     /tmp/cc1MggNY.s:234    .text:0000000000000168 .LVL21
     /tmp/cc1MggNY.s:206    .text:0000000000000148 .LVL17
     /tmp/cc1MggNY.s:16     .text:0000000000000000 .LVL0
     /tmp/cc1MggNY.s:39     .text:0000000000000030 .LVL1
     /tmp/cc1MggNY.s:120    .text:00000000000000d0 .LVL11
     /tmp/cc1MggNY.s:123    .text:00000000000000d4 .LVL12
     /tmp/cc1MggNY.s:54     .text:0000000000000048 .LVL4
     /tmp/cc1MggNY.s:82     .text:000000000000008c .LVL6
     /tmp/cc1MggNY.s:86     .text:0000000000000090 .LVL7
     /tmp/cc1MggNY.s:45     .text:000000000000003c .LVL3
     /tmp/cc1MggNY.s:115    .text:00000000000000c8 .LVL10
     /tmp/cc1MggNY.s:600    .debug_info:0000000000000000 .Ldebug_info0
     /tmp/cc1MggNY.s:208    .text:0000000000000148 .LBE22
     /tmp/cc1MggNY.s:230    .text:0000000000000164 .LBB25
     /tmp/cc1MggNY.s:241    .text:0000000000000174 .LBE25
     /tmp/cc1MggNY.s:131    .gcc_except_table:0000000000000000 .LLSDA34

UNDEFINED SYMBOLS
_Znwm
_ZN9Scheduler3putEP3TCB
_ZdlPv
_Unwind_Resume
__gxx_personality_v0
_ZN5Riscv10popSppSpieEv
_ZN9Scheduler3getEv
_ZN3TCB13contextSwitchEPNS_7ContextES1_
